

Microchip MPLAB XC8 Assembler V2.32 build 20210201212658 
                                                                                               Sun Mar 06 17:41:30 2022

Microchip MPLAB XC8 C Compiler v2.32 (Free license) build 20210201212658 Og1 
     1                           	processor	16F887
     2                           	pagewidth 120
     3                           	opt	flic
     4                           	psect	strings,global,class=STRING,delta=2,noexec
     5                           	psect	cinit,global,class=CODE,merge=1,delta=2
     6                           	psect	bssBANK0,global,class=BANK0,space=1,delta=1,noexec
     7                           	psect	cstackCOMMON,global,class=COMMON,space=1,delta=1,noexec
     8                           	psect	cstackBANK0,global,class=BANK0,space=1,delta=1,noexec
     9                           	psect	maintext,global,class=CODE,split=1,delta=2
    10                           	psect	text1,local,class=CODE,merge=1,delta=2
    11                           	psect	text2,local,class=CODE,merge=1,delta=2
    12                           	psect	text3,local,class=CODE,merge=1,delta=2,group=1
    13                           	psect	text4,local,class=CODE,merge=1,delta=2
    14                           	psect	text5,local,class=CODE,merge=1,delta=2
    15                           	psect	text6,local,class=CODE,merge=1,delta=2
    16                           	psect	text7,local,class=CODE,merge=1,delta=2
    17                           	psect	text8,local,class=CODE,merge=1,delta=2
    18                           	psect	text9,local,class=CODE,merge=1,delta=2
    19                           	psect	text10,local,class=CODE,merge=1,delta=2
    20                           	psect	text11,local,class=CODE,merge=1,delta=2
    21                           	psect	text12,local,class=CODE,merge=1,delta=2
    22                           	psect	text13,local,class=CODE,merge=1,delta=2
    23                           	psect	text14,local,class=CODE,merge=1,delta=2
    24                           	psect	text15,local,class=CODE,merge=1,delta=2
    25                           	psect	text16,local,class=CODE,merge=1,delta=2
    26                           	psect	text17,local,class=CODE,merge=1,delta=2
    27                           	psect	text18,local,class=CODE,merge=1,delta=2
    28                           	psect	text19,local,class=CODE,merge=1,delta=2
    29                           	psect	text20,local,class=CODE,merge=1,delta=2
    30                           	psect	config,global,abs,ovrld,class=CONFIG,space=4,delta=2,noexec
    31                           	dabs	1,0x7E,2
    32  0000                     
    33                           ; Version 2.20
    34                           ; Generated 12/02/2020 GMT
    35                           ; 
    36                           ; Copyright © 2020, Microchip Technology Inc. and its subsidiaries ("Microchip")
    37                           ; All rights reserved.
    38                           ; 
    39                           ; This software is developed by Microchip Technology Inc. and its subsidiaries ("Microch
      +                          ip").
    40                           ; 
    41                           ; Redistribution and use in source and binary forms, with or without modification, are
    42                           ; permitted provided that the following conditions are met:
    43                           ; 
    44                           ;     1. Redistributions of source code must retain the above copyright notice, this lis
      +                          t of
    45                           ;        conditions and the following disclaimer.
    46                           ; 
    47                           ;     2. Redistributions in binary form must reproduce the above copyright notice, this 
      +                          list
    48                           ;        of conditions and the following disclaimer in the documentation and/or other
    49                           ;        materials provided with the distribution.
    50                           ; 
    51                           ;     3. Microchip's name may not be used to endorse or promote products derived from th
      +                          is
    52                           ;        software without specific prior written permission.
    53                           ; 
    54                           ; THIS SOFTWARE IS PROVIDED BY MICROCHIP "AS IS" AND ANY EXPRESS OR IMPLIED WARRANTIES,
    55                           ; INCLUDING, BUT NOT LIMITED TO, THE IMPLIED WARRANTIES OF MERCHANTABILITY AND FITNESS F
      +                          OR
    56                           ; PURPOSE ARE DISCLAIMED.  IN NO EVENT SHALL MICROCHIP BE LIABLE FOR ANY DIRECT, INDIREC
      +                          T,
    57                           ; INCIDENTAL, SPECIAL, EXEMPLARY, OR CONSEQUENTIAL DAMAGES (INCLUDING BUT NOT LIMITED TO
    58                           ; PROCUREMENT OF SUBSTITUTE GOODS OR SERVICES; LOSS OF USE, DATA OR PROFITS; OR BUSINESS
    59                           ; INTERRUPTION) HOWSOEVER CAUSED AND ON ANY THEORY OF LIABILITY, WHETHER IN CONTRACT, ST
      +                          RICT
    60                           ; LIABILITY, OR TORT (INCLUDING NEGLIGENCE OR OTHERWISE) ARISING IN ANY WAY OUT OF THE U
      +                          SE OF
    61                           ; THIS SOFTWARE, EVEN IF ADVISED OF THE POSSIBILITY OF SUCH DAMAGE.
    62                           ; 
    63                           ; 
    64                           ; Code-generator required, PIC16F887 Definitions
    65                           ; 
    66                           ; SFR Addresses
    67  0000                     	;# 
    68  0001                     	;# 
    69  0002                     	;# 
    70  0003                     	;# 
    71  0004                     	;# 
    72  0005                     	;# 
    73  0006                     	;# 
    74  0007                     	;# 
    75  0008                     	;# 
    76  0009                     	;# 
    77  000A                     	;# 
    78  000B                     	;# 
    79  000C                     	;# 
    80  000D                     	;# 
    81  000E                     	;# 
    82  000E                     	;# 
    83  000F                     	;# 
    84  0010                     	;# 
    85  0011                     	;# 
    86  0012                     	;# 
    87  0013                     	;# 
    88  0014                     	;# 
    89  0015                     	;# 
    90  0015                     	;# 
    91  0016                     	;# 
    92  0017                     	;# 
    93  0018                     	;# 
    94  0019                     	;# 
    95  001A                     	;# 
    96  001B                     	;# 
    97  001B                     	;# 
    98  001C                     	;# 
    99  001D                     	;# 
   100  001E                     	;# 
   101  001F                     	;# 
   102  0081                     	;# 
   103  0085                     	;# 
   104  0086                     	;# 
   105  0087                     	;# 
   106  0088                     	;# 
   107  0089                     	;# 
   108  008C                     	;# 
   109  008D                     	;# 
   110  008E                     	;# 
   111  008F                     	;# 
   112  0090                     	;# 
   113  0091                     	;# 
   114  0092                     	;# 
   115  0093                     	;# 
   116  0093                     	;# 
   117  0093                     	;# 
   118  0094                     	;# 
   119  0095                     	;# 
   120  0096                     	;# 
   121  0097                     	;# 
   122  0098                     	;# 
   123  0099                     	;# 
   124  009A                     	;# 
   125  009B                     	;# 
   126  009C                     	;# 
   127  009D                     	;# 
   128  009E                     	;# 
   129  009F                     	;# 
   130  0105                     	;# 
   131  0107                     	;# 
   132  0108                     	;# 
   133  0109                     	;# 
   134  010C                     	;# 
   135  010C                     	;# 
   136  010D                     	;# 
   137  010E                     	;# 
   138  010F                     	;# 
   139  0185                     	;# 
   140  0187                     	;# 
   141  0188                     	;# 
   142  0189                     	;# 
   143  018C                     	;# 
   144  018D                     	;# 
   145  0000                     	;# 
   146  0001                     	;# 
   147  0002                     	;# 
   148  0003                     	;# 
   149  0004                     	;# 
   150  0005                     	;# 
   151  0006                     	;# 
   152  0007                     	;# 
   153  0008                     	;# 
   154  0009                     	;# 
   155  000A                     	;# 
   156  000B                     	;# 
   157  000C                     	;# 
   158  000D                     	;# 
   159  000E                     	;# 
   160  000E                     	;# 
   161  000F                     	;# 
   162  0010                     	;# 
   163  0011                     	;# 
   164  0012                     	;# 
   165  0013                     	;# 
   166  0014                     	;# 
   167  0015                     	;# 
   168  0015                     	;# 
   169  0016                     	;# 
   170  0017                     	;# 
   171  0018                     	;# 
   172  0019                     	;# 
   173  001A                     	;# 
   174  001B                     	;# 
   175  001B                     	;# 
   176  001C                     	;# 
   177  001D                     	;# 
   178  001E                     	;# 
   179  001F                     	;# 
   180  0081                     	;# 
   181  0085                     	;# 
   182  0086                     	;# 
   183  0087                     	;# 
   184  0088                     	;# 
   185  0089                     	;# 
   186  008C                     	;# 
   187  008D                     	;# 
   188  008E                     	;# 
   189  008F                     	;# 
   190  0090                     	;# 
   191  0091                     	;# 
   192  0092                     	;# 
   193  0093                     	;# 
   194  0093                     	;# 
   195  0093                     	;# 
   196  0094                     	;# 
   197  0095                     	;# 
   198  0096                     	;# 
   199  0097                     	;# 
   200  0098                     	;# 
   201  0099                     	;# 
   202  009A                     	;# 
   203  009B                     	;# 
   204  009C                     	;# 
   205  009D                     	;# 
   206  009E                     	;# 
   207  009F                     	;# 
   208  0105                     	;# 
   209  0107                     	;# 
   210  0108                     	;# 
   211  0109                     	;# 
   212  010C                     	;# 
   213  010C                     	;# 
   214  010D                     	;# 
   215  010E                     	;# 
   216  010F                     	;# 
   217  0185                     	;# 
   218  0187                     	;# 
   219  0188                     	;# 
   220  0189                     	;# 
   221  018C                     	;# 
   222  018D                     	;# 
   223  0000                     	;# 
   224  0001                     	;# 
   225  0002                     	;# 
   226  0003                     	;# 
   227  0004                     	;# 
   228  0005                     	;# 
   229  0006                     	;# 
   230  0007                     	;# 
   231  0008                     	;# 
   232  0009                     	;# 
   233  000A                     	;# 
   234  000B                     	;# 
   235  000C                     	;# 
   236  000D                     	;# 
   237  000E                     	;# 
   238  000E                     	;# 
   239  000F                     	;# 
   240  0010                     	;# 
   241  0011                     	;# 
   242  0012                     	;# 
   243  0013                     	;# 
   244  0014                     	;# 
   245  0015                     	;# 
   246  0015                     	;# 
   247  0016                     	;# 
   248  0017                     	;# 
   249  0018                     	;# 
   250  0019                     	;# 
   251  001A                     	;# 
   252  001B                     	;# 
   253  001B                     	;# 
   254  001C                     	;# 
   255  001D                     	;# 
   256  001E                     	;# 
   257  001F                     	;# 
   258  0081                     	;# 
   259  0085                     	;# 
   260  0086                     	;# 
   261  0087                     	;# 
   262  0088                     	;# 
   263  0089                     	;# 
   264  008C                     	;# 
   265  008D                     	;# 
   266  008E                     	;# 
   267  008F                     	;# 
   268  0090                     	;# 
   269  0091                     	;# 
   270  0092                     	;# 
   271  0093                     	;# 
   272  0093                     	;# 
   273  0093                     	;# 
   274  0094                     	;# 
   275  0095                     	;# 
   276  0096                     	;# 
   277  0097                     	;# 
   278  0098                     	;# 
   279  0099                     	;# 
   280  009A                     	;# 
   281  009B                     	;# 
   282  009C                     	;# 
   283  009D                     	;# 
   284  009E                     	;# 
   285  009F                     	;# 
   286  0105                     	;# 
   287  0107                     	;# 
   288  0108                     	;# 
   289  0109                     	;# 
   290  010C                     	;# 
   291  010C                     	;# 
   292  010D                     	;# 
   293  010E                     	;# 
   294  010F                     	;# 
   295  0185                     	;# 
   296  0187                     	;# 
   297  0188                     	;# 
   298  0189                     	;# 
   299  018C                     	;# 
   300  018D                     	;# 
   301  0000                     	;# 
   302  0001                     	;# 
   303  0002                     	;# 
   304  0003                     	;# 
   305  0004                     	;# 
   306  0005                     	;# 
   307  0006                     	;# 
   308  0007                     	;# 
   309  0008                     	;# 
   310  0009                     	;# 
   311  000A                     	;# 
   312  000B                     	;# 
   313  000C                     	;# 
   314  000D                     	;# 
   315  000E                     	;# 
   316  000E                     	;# 
   317  000F                     	;# 
   318  0010                     	;# 
   319  0011                     	;# 
   320  0012                     	;# 
   321  0013                     	;# 
   322  0014                     	;# 
   323  0015                     	;# 
   324  0015                     	;# 
   325  0016                     	;# 
   326  0017                     	;# 
   327  0018                     	;# 
   328  0019                     	;# 
   329  001A                     	;# 
   330  001B                     	;# 
   331  001B                     	;# 
   332  001C                     	;# 
   333  001D                     	;# 
   334  001E                     	;# 
   335  001F                     	;# 
   336  0081                     	;# 
   337  0085                     	;# 
   338  0086                     	;# 
   339  0087                     	;# 
   340  0088                     	;# 
   341  0089                     	;# 
   342  008C                     	;# 
   343  008D                     	;# 
   344  008E                     	;# 
   345  008F                     	;# 
   346  0090                     	;# 
   347  0091                     	;# 
   348  0092                     	;# 
   349  0093                     	;# 
   350  0093                     	;# 
   351  0093                     	;# 
   352  0094                     	;# 
   353  0095                     	;# 
   354  0096                     	;# 
   355  0097                     	;# 
   356  0098                     	;# 
   357  0099                     	;# 
   358  009A                     	;# 
   359  009B                     	;# 
   360  009C                     	;# 
   361  009D                     	;# 
   362  009E                     	;# 
   363  009F                     	;# 
   364  0105                     	;# 
   365  0107                     	;# 
   366  0108                     	;# 
   367  0109                     	;# 
   368  010C                     	;# 
   369  010C                     	;# 
   370  010D                     	;# 
   371  010E                     	;# 
   372  010F                     	;# 
   373  0185                     	;# 
   374  0187                     	;# 
   375  0188                     	;# 
   376  0189                     	;# 
   377  018C                     	;# 
   378  018D                     	;# 
   379  0014                     _SSPCON	set	20
   380  0013                     _SSPBUF	set	19
   381  0014                     _SSPCONbits	set	20
   382  0008                     _PORTD	set	8
   383  0006                     _PORTB	set	6
   384  0005                     _PORTA	set	5
   385  0047                     _RD7	set	71
   386  0046                     _RD6	set	70
   387  0091                     _SSPCON2bits	set	145
   388  0087                     _TRISCbits	set	135
   389  0093                     _SSPADD	set	147
   390  0091                     _SSPCON2	set	145
   391  0094                     _SSPSTAT	set	148
   392  008F                     _OSCCONbits	set	143
   393  0088                     _TRISD	set	136
   394  0086                     _TRISB	set	134
   395  0085                     _TRISA	set	133
   396  0189                     _ANSELH	set	393
   397  0188                     _ANSEL	set	392
   398                           
   399                           	psect	strings
   400  0003                     __pstrings:
   401  0003                     stringtab:
   402  0003                     __stringtab:
   403  0003                     stringcode:	
   404                           ;	String table - string pointers are 1 byte each
   405                           
   406  0003                     stringdir:
   407  0003  3000               	movlw	high stringdir
   408  0004  008A               	movwf	10
   409  0005  0804               	movf	4,w
   410  0006  0A84               	incf	4,f
   411  0007  0782               	addwf	2,f
   412  0008                     __stringbase:
   413  0008  3400               	retlw	0
   414  0009                     __end_of__stringtab:
   415  0009                     STR_2:
   416  0009  3453               	retlw	83	;'S'
   417  000A  3465               	retlw	101	;'e'
   418  000B  346D               	retlw	109	;'m'
   419  000C  3461               	retlw	97	;'a'
   420  000D  3466               	retlw	102	;'f'
   421  000E  346F               	retlw	111	;'o'
   422  000F  3472               	retlw	114	;'r'
   423  0010  346F               	retlw	111	;'o'
   424  0011  3400               	retlw	0
   425  0012                     STR_1:
   426  0012  3447               	retlw	71	;'G'
   427  0013  3465               	retlw	101	;'e'
   428  0014  3473               	retlw	115	;'s'
   429  0015  3474               	retlw	116	;'t'
   430  0016  346F               	retlw	111	;'o'
   431  0017  3400               	retlw	0
   432                           
   433                           	psect	cinit
   434  07F8                     start_initialization:	
   435                           ; #config settings
   436                           
   437  07F8                     __initialization:
   438                           
   439                           ; Clear objects allocated to BANK0
   440  07F8  1283               	bcf	3,5	;RP0=0, select bank0
   441  07F9  1303               	bcf	3,6	;RP1=0, select bank0
   442  07FA  01AB               	clrf	__pbssBANK0& (0+127)
   443  07FB  01AC               	clrf	(__pbssBANK0+1)& (0+127)
   444  07FC                     end_of_initialization:	
   445                           ;End of C runtime variable initialization code
   446                           
   447  07FC                     __end_of__initialization:
   448  07FC  0183               	clrf	3
   449  07FD  120A  118A  2F00   	ljmp	_main	;jump to C main() function
   450                           
   451                           	psect	bssBANK0
   452  002B                     __pbssBANK0:
   453  002B                     _data:
   454  002B                     	ds	2
   455                           
   456                           	psect	cstackCOMMON
   457  0070                     __pcstackCOMMON:
   458  0070                     ?_setup:
   459  0070                     ?_config_io:	
   460                           ; 1 bytes @ 0x0
   461                           
   462  0070                     ??_config_io:	
   463                           ; 1 bytes @ 0x0
   464                           
   465  0070                     ?_config_clock:	
   466                           ; 1 bytes @ 0x0
   467                           
   468  0070                     ??_config_clock:	
   469                           ; 1 bytes @ 0x0
   470                           
   471  0070                     ?_config_lcd:	
   472                           ; 1 bytes @ 0x0
   473                           
   474  0070                     ?_LCD_START:	
   475                           ; 1 bytes @ 0x0
   476                           
   477  0070                     ?_LCD_writeString:	
   478                           ; 1 bytes @ 0x0
   479                           
   480  0070                     ?_main:	
   481                           ; 1 bytes @ 0x0
   482                           
   483  0070                     ?_flip_EN:	
   484                           ; 1 bytes @ 0x0
   485                           
   486  0070                     ??_flip_EN:	
   487                           ; 1 bytes @ 0x0
   488                           
   489  0070                     ?_LCD_CMD:	
   490                           ; 1 bytes @ 0x0
   491                           
   492  0070                     ?_LCD_write:	
   493                           ; 1 bytes @ 0x0
   494                           
   495  0070                     ?_i2c_MasterWait:	
   496                           ; 1 bytes @ 0x0
   497                           
   498  0070                     ??_i2c_MasterWait:	
   499                           ; 1 bytes @ 0x0
   500                           
   501  0070                     ?_i2c_MasterStart:	
   502                           ; 1 bytes @ 0x0
   503                           
   504  0070                     ??_i2c_MasterStart:	
   505                           ; 1 bytes @ 0x0
   506                           
   507  0070                     ?_i2c_MasterStop:	
   508                           ; 1 bytes @ 0x0
   509                           
   510  0070                     ??_i2c_MasterStop:	
   511                           ; 1 bytes @ 0x0
   512                           
   513  0070                     ?_i2c_MasterSS:	
   514                           ; 1 bytes @ 0x0
   515                           
   516  0070                     ??_i2c_MasterSS:	
   517                           ; 1 bytes @ 0x0
   518                           
   519  0070                     ?_i2c_MasterWrite:	
   520                           ; 1 bytes @ 0x0
   521                           
   522  0070                     ??_i2c_MasterWrite:	
   523                           ; 1 bytes @ 0x0
   524                           
   525  0070                     ?_i2c_MasterRead:	
   526                           ; 1 bytes @ 0x0
   527                           
   528  0070                     ?___lldiv:	
   529                           ; 2 bytes @ 0x0
   530                           
   531  0070                     i2c_MasterSS@address:	
   532                           ; 4 bytes @ 0x0
   533                           
   534  0070                     i2c_MasterWrite@dato:	
   535                           ; 1 bytes @ 0x0
   536                           
   537  0070                     i2c_MasterRead@d:	
   538                           ; 1 bytes @ 0x0
   539                           
   540  0070                     ___lldiv@divisor:	
   541                           ; 2 bytes @ 0x0
   542                           
   543                           
   544                           ; 4 bytes @ 0x0
   545  0070                     	ds	1
   546  0071                     ?_i2c_MW:
   547  0071                     i2c_MW@messege:	
   548                           ; 1 bytes @ 0x1
   549                           
   550                           
   551                           ; 1 bytes @ 0x1
   552  0071                     	ds	1
   553  0072                     ??_i2c_MW:
   554  0072                     ??_LCD_CMD:	
   555                           ; 1 bytes @ 0x2
   556                           
   557  0072                     ??_LCD_write:	
   558                           ; 1 bytes @ 0x2
   559                           
   560  0072                     ??_i2c_MasterRead:	
   561                           ; 1 bytes @ 0x2
   562                           
   563  0072                     LCD_CMD@cmd:	
   564                           ; 1 bytes @ 0x2
   565                           
   566  0072                     LCD_write@value:	
   567                           ; 1 bytes @ 0x2
   568                           
   569  0072                     i2c_MW@address:	
   570                           ; 1 bytes @ 0x2
   571                           
   572                           
   573                           ; 1 bytes @ 0x2
   574  0072                     	ds	1
   575  0073                     ??_LCD_START:
   576  0073                     ?_LCD_setCursor:	
   577                           ; 1 bytes @ 0x3
   578                           
   579  0073                     ??_LCD_writeString:	
   580                           ; 1 bytes @ 0x3
   581                           
   582  0073                     LCD_setCursor@columna:	
   583                           ; 1 bytes @ 0x3
   584                           
   585  0073                     LCD_writeString@i:	
   586                           ; 1 bytes @ 0x3
   587                           
   588                           
   589                           ; 2 bytes @ 0x3
   590  0073                     	ds	1
   591  0074                     ??_LCD_setCursor:
   592  0074                     LCD_setCursor@fila:	
   593                           ; 1 bytes @ 0x4
   594                           
   595  0074                     i2c_MasterRead@temp:	
   596                           ; 1 bytes @ 0x4
   597                           
   598  0074                     ___lldiv@dividend:	
   599                           ; 2 bytes @ 0x4
   600                           
   601                           
   602                           ; 4 bytes @ 0x4
   603  0074                     	ds	1
   604  0075                     LCD_writeString@text:
   605                           
   606                           ; 1 bytes @ 0x5
   607  0075                     	ds	1
   608  0076                     ?_i2c_MR:
   609  0076                     ??_config_lcd:	
   610                           ; 1 bytes @ 0x6
   611                           
   612  0076                     i2c_MR@value:	
   613                           ; 1 bytes @ 0x6
   614                           
   615                           
   616                           ; 1 bytes @ 0x6
   617  0076                     	ds	1
   618  0077                     ??_i2c_MR:
   619                           
   620                           ; 1 bytes @ 0x7
   621  0077                     	ds	1
   622  0078                     ??___lldiv:
   623  0078                     i2c_MR@address:	
   624                           ; 1 bytes @ 0x8
   625                           
   626                           
   627                           ; 1 bytes @ 0x8
   628  0078                     	ds	1
   629  0079                     i2c_MR@temp:
   630  0079                     ___lldiv@quotient:	
   631                           ; 1 bytes @ 0x9
   632                           
   633                           
   634                           ; 4 bytes @ 0x9
   635  0079                     	ds	4
   636  007D                     ___lldiv@counter:
   637                           
   638                           ; 1 bytes @ 0xD
   639  007D                     	ds	1
   640  007E                     ??_setup:
   641                           
   642                           	psect	cstackBANK0
   643  0020                     __pcstackBANK0:	
   644                           ; 1 bytes @ 0xE
   645                           
   646  0020                     ?_i2c_MasterInit:
   647  0020                     i2c_MasterInit@freq:	
   648                           ; 1 bytes @ 0x0
   649                           
   650                           
   651                           ; 4 bytes @ 0x0
   652  0020                     	ds	4
   653  0024                     ??_i2c_MasterInit:
   654                           
   655                           ; 1 bytes @ 0x4
   656  0024                     	ds	4
   657  0028                     ??_main:
   658                           
   659                           ; 1 bytes @ 0x8
   660  0028                     	ds	3
   661                           
   662                           	psect	maintext
   663  0700                     __pmaintext:	
   664 ;;
   665 ;;Main: autosize = 0, tempsize = 3, incstack = 0, save=0
   666 ;;
   667 ;; *************** function _main *****************
   668 ;; Defined at:
   669 ;;		line 91 in file "C:/Users/nicou/OneDrive/Documents/2022/1er_semestre/Digital_2/MiniProy2/MP2-Maestro.X/main.c"
   670 ;; Parameters:    Size  Location     Type
   671 ;;		None
   672 ;; Auto vars:     Size  Location     Type
   673 ;;		None
   674 ;; Return value:  Size  Location     Type
   675 ;;                  1    wreg      void 
   676 ;; Registers used:
   677 ;;		wreg, fsr0l, fsr0h, status,2, status,0, pclath, cstack
   678 ;; Tracked objects:
   679 ;;		On entry : B00/0
   680 ;;		On exit  : 0/0
   681 ;;		Unchanged: 0/0
   682 ;; Data sizes:     COMMON   BANK0   BANK1   BANK3   BANK2
   683 ;;      Params:         0       0       0       0       0
   684 ;;      Locals:         0       0       0       0       0
   685 ;;      Temps:          0       3       0       0       0
   686 ;;      Totals:         0       3       0       0       0
   687 ;;Total ram usage:        3 bytes
   688 ;; Hardware stack levels required when called: 5
   689 ;; This function calls:
   690 ;;		_i2c_MR
   691 ;;		_i2c_MW
   692 ;;		_setup
   693 ;; This function is called by:
   694 ;;		Startup code after reset
   695 ;; This function uses a non-reentrant model
   696 ;;
   697                           
   698                           
   699                           ;psect for function _main
   700  0700                     _main:
   701  0700                     l1149:	
   702                           ;incstack = 0
   703                           ; Regs used in _main: [wreg-fsr0h+status,2+status,0+pclath+cstack]
   704                           
   705                           
   706                           ;main.c: 92: setup();
   707  0700  120A  118A  25DD  120A  118A  	fcall	_setup
   708  0705                     l1151:
   709                           
   710                           ;main.c: 93: data.send = 0x15;
   711  0705  3015               	movlw	21
   712  0706  1283               	bcf	3,5	;RP0=0, select bank0
   713  0707  1303               	bcf	3,6	;RP1=0, select bank0
   714  0708  00A8               	movwf	??_main
   715  0709  0828               	movf	??_main,w
   716  070A  00AB               	movwf	_data
   717  070B                     l1153:
   718                           
   719                           ;main.c: 96: i2c_MW(0x50, data.send);
   720  070B  1283               	bcf	3,5	;RP0=0, select bank0
   721  070C  1303               	bcf	3,6	;RP1=0, select bank0
   722  070D  082B               	movf	_data,w
   723  070E  00A8               	movwf	??_main
   724  070F  0828               	movf	??_main,w
   725  0710  00F1               	movwf	i2c_MW@messege
   726  0711  3050               	movlw	80
   727  0712  120A  118A  25C5  120A  118A  	fcall	_i2c_MW
   728  0717                     l1155:
   729                           
   730                           ;main.c: 97: _delay((unsigned long)((1000)*(4000000/4000.0)));
   731  0717  3006               	movlw	6
   732  0718  1283               	bcf	3,5	;RP0=0, select bank0
   733  0719  1303               	bcf	3,6	;RP1=0, select bank0
   734  071A  00AA               	movwf	??_main+2
   735  071B  3013               	movlw	19
   736  071C  00A9               	movwf	??_main+1
   737  071D  30AD               	movlw	173
   738  071E  00A8               	movwf	??_main
   739  071F                     u257:
   740  071F  0BA8               	decfsz	??_main,f
   741  0720  2F1F               	goto	u257
   742  0721  0BA9               	decfsz	??_main+1,f
   743  0722  2F1F               	goto	u257
   744  0723  0BAA               	decfsz	??_main+2,f
   745  0724  2F1F               	goto	u257
   746  0725                     l1157:
   747                           
   748                           ;main.c: 99: i2c_MR(0x50, &data.read);
   749  0725  302C               	movlw	(low ((_data| 0+1)))& (0+255)
   750  0726  1283               	bcf	3,5	;RP0=0, select bank0
   751  0727  1303               	bcf	3,6	;RP1=0, select bank0
   752  0728  00A8               	movwf	??_main
   753  0729  0828               	movf	??_main,w
   754  072A  00F6               	movwf	i2c_MR@value
   755  072B  3050               	movlw	80
   756  072C  120A  118A  2645  120A  118A  	fcall	_i2c_MR
   757  0731                     l1159:
   758                           
   759                           ;main.c: 100: _delay((unsigned long)((1000)*(4000000/4000.0)));
   760  0731  3006               	movlw	6
   761  0732  1283               	bcf	3,5	;RP0=0, select bank0
   762  0733  1303               	bcf	3,6	;RP1=0, select bank0
   763  0734  00AA               	movwf	??_main+2
   764  0735  3013               	movlw	19
   765  0736  00A9               	movwf	??_main+1
   766  0737  30AD               	movlw	173
   767  0738  00A8               	movwf	??_main
   768  0739                     u267:
   769  0739  0BA8               	decfsz	??_main,f
   770  073A  2F39               	goto	u267
   771  073B  0BA9               	decfsz	??_main+1,f
   772  073C  2F39               	goto	u267
   773  073D  0BAA               	decfsz	??_main+2,f
   774  073E  2F39               	goto	u267
   775  073F  2F0B               	goto	l1153
   776  0740  120A  118A  2800   	ljmp	start
   777  0743                     __end_of_main:
   778                           
   779                           	psect	text1
   780  05DD                     __ptext1:	
   781 ;; *************** function _setup *****************
   782 ;; Defined at:
   783 ;;		line 113 in file "C:/Users/nicou/OneDrive/Documents/2022/1er_semestre/Digital_2/MiniProy2/MP2-Maestro.X/main.c"
   784 ;; Parameters:    Size  Location     Type
   785 ;;		None
   786 ;; Auto vars:     Size  Location     Type
   787 ;;		None
   788 ;; Return value:  Size  Location     Type
   789 ;;                  1    wreg      void 
   790 ;; Registers used:
   791 ;;		wreg, fsr0l, fsr0h, status,2, status,0, pclath, cstack
   792 ;; Tracked objects:
   793 ;;		On entry : 0/0
   794 ;;		On exit  : 0/0
   795 ;;		Unchanged: 0/0
   796 ;; Data sizes:     COMMON   BANK0   BANK1   BANK3   BANK2
   797 ;;      Params:         0       0       0       0       0
   798 ;;      Locals:         0       0       0       0       0
   799 ;;      Temps:          0       0       0       0       0
   800 ;;      Totals:         0       0       0       0       0
   801 ;;Total ram usage:        0 bytes
   802 ;; Hardware stack levels used: 1
   803 ;; Hardware stack levels required when called: 4
   804 ;; This function calls:
   805 ;;		_config_clock
   806 ;;		_config_io
   807 ;;		_config_lcd
   808 ;;		_i2c_MasterInit
   809 ;; This function is called by:
   810 ;;		_main
   811 ;; This function uses a non-reentrant model
   812 ;;
   813                           
   814                           
   815                           ;psect for function _setup
   816  05DD                     _setup:
   817  05DD                     l1127:	
   818                           ;incstack = 0
   819                           ; Regs used in _setup: [wreg-fsr0h+status,2+status,0+pclath+cstack]
   820                           
   821                           
   822                           ;main.c: 114: config_io();
   823  05DD  120A  118A  2598  120A  118A  	fcall	_config_io
   824  05E2                     l1129:
   825                           
   826                           ;main.c: 115: config_clock();
   827  05E2  120A  118A  254F  120A  118A  	fcall	_config_clock
   828  05E7                     l1131:
   829                           
   830                           ;main.c: 116: config_lcd();
   831  05E7  120A  118A  25FC  120A  118A  	fcall	_config_lcd
   832  05EC                     l1133:
   833                           
   834                           ;main.c: 119: i2c_MasterInit(100000);
   835  05EC  3000               	movlw	0
   836  05ED  1283               	bcf	3,5	;RP0=0, select bank0
   837  05EE  1303               	bcf	3,6	;RP1=0, select bank0
   838  05EF  00A3               	movwf	i2c_MasterInit@freq+3
   839  05F0  3001               	movlw	1
   840  05F1  00A2               	movwf	i2c_MasterInit@freq+2
   841  05F2  3086               	movlw	134
   842  05F3  00A1               	movwf	i2c_MasterInit@freq+1
   843  05F4  30A0               	movlw	160
   844  05F5  00A0               	movwf	i2c_MasterInit@freq
   845  05F6  120A  118A  26C2  120A  118A  	fcall	_i2c_MasterInit
   846  05FB                     l53:
   847  05FB  0008               	return
   848  05FC                     __end_of_setup:
   849                           
   850                           	psect	text2
   851  06C2                     __ptext2:	
   852 ;; *************** function _i2c_MasterInit *****************
   853 ;; Defined at:
   854 ;;		line 10 in file "C:/Users/nicou/OneDrive/Documents/2022/1er_semestre/Digital_2/MiniProy2/MP2-Maestro.X/i2c.c"
   855 ;; Parameters:    Size  Location     Type
   856 ;;  freq            4    0[BANK0 ] unsigned long 
   857 ;; Auto vars:     Size  Location     Type
   858 ;;		None
   859 ;; Return value:  Size  Location     Type
   860 ;;                  1    wreg      void 
   861 ;; Registers used:
   862 ;;		wreg, status,2, status,0, pclath, cstack
   863 ;; Tracked objects:
   864 ;;		On entry : 0/0
   865 ;;		On exit  : 0/0
   866 ;;		Unchanged: 0/0
   867 ;; Data sizes:     COMMON   BANK0   BANK1   BANK3   BANK2
   868 ;;      Params:         0       4       0       0       0
   869 ;;      Locals:         0       0       0       0       0
   870 ;;      Temps:          0       4       0       0       0
   871 ;;      Totals:         0       8       0       0       0
   872 ;;Total ram usage:        8 bytes
   873 ;; Hardware stack levels used: 1
   874 ;; Hardware stack levels required when called: 1
   875 ;; This function calls:
   876 ;;		___lldiv
   877 ;; This function is called by:
   878 ;;		_setup
   879 ;; This function uses a non-reentrant model
   880 ;;
   881                           
   882                           
   883                           ;psect for function _i2c_MasterInit
   884  06C2                     _i2c_MasterInit:
   885  06C2                     l1081:	
   886                           ;incstack = 0
   887                           ; Regs used in _i2c_MasterInit: [wreg+status,2+status,0+pclath+cstack]
   888                           
   889                           
   890                           ;i2c.c: 11: SSPSTAT = 0b10000000;
   891  06C2  3080               	movlw	128
   892  06C3  1683               	bsf	3,5	;RP0=1, select bank1
   893  06C4  1303               	bcf	3,6	;RP1=0, select bank1
   894  06C5  0094               	movwf	20	;volatile
   895  06C6                     l1083:
   896                           
   897                           ;i2c.c: 13: SSPCONbits.SSPEN = 1;
   898  06C6  1283               	bcf	3,5	;RP0=0, select bank0
   899  06C7  1303               	bcf	3,6	;RP1=0, select bank0
   900  06C8  1694               	bsf	20,5	;volatile
   901  06C9                     l1085:
   902                           
   903                           ;i2c.c: 14: SSPCONbits.SSPM = 0b1000;
   904  06C9  0814               	movf	20,w	;volatile
   905  06CA  39F0               	andlw	-16
   906  06CB  3808               	iorlw	8
   907  06CC  0094               	movwf	20	;volatile
   908  06CD                     l1087:
   909                           
   910                           ;i2c.c: 16: SSPCON2 = 0;
   911  06CD  1683               	bsf	3,5	;RP0=1, select bank1
   912  06CE  1303               	bcf	3,6	;RP1=0, select bank1
   913  06CF  0191               	clrf	17	;volatile
   914  06D0                     l1089:
   915                           
   916                           ;i2c.c: 18: SSPADD = (4000000/(4*freq))-1;
   917  06D0  1283               	bcf	3,5	;RP0=0, select bank0
   918  06D1  1303               	bcf	3,6	;RP1=0, select bank0
   919  06D2  0820               	movf	i2c_MasterInit@freq,w
   920  06D3  00A4               	movwf	??_i2c_MasterInit
   921  06D4  0821               	movf	i2c_MasterInit@freq+1,w
   922  06D5  00A5               	movwf	??_i2c_MasterInit+1
   923  06D6  0822               	movf	i2c_MasterInit@freq+2,w
   924  06D7  00A6               	movwf	??_i2c_MasterInit+2
   925  06D8  0823               	movf	i2c_MasterInit@freq+3,w
   926  06D9  00A7               	movwf	??_i2c_MasterInit+3
   927  06DA  3002               	movlw	2
   928  06DB                     u235:
   929  06DB  1003               	clrc
   930  06DC  0DA4               	rlf	??_i2c_MasterInit,f
   931  06DD  0DA5               	rlf	??_i2c_MasterInit+1,f
   932  06DE  0DA6               	rlf	??_i2c_MasterInit+2,f
   933  06DF  0DA7               	rlf	??_i2c_MasterInit+3,f
   934  06E0                     u230:
   935  06E0  3EFF               	addlw	-1
   936  06E1  1D03               	skipz
   937  06E2  2EDB               	goto	u235
   938  06E3  0827               	movf	??_i2c_MasterInit+3,w
   939  06E4  00F3               	movwf	___lldiv@divisor+3
   940  06E5  0826               	movf	??_i2c_MasterInit+2,w
   941  06E6  00F2               	movwf	___lldiv@divisor+2
   942  06E7  0825               	movf	??_i2c_MasterInit+1,w
   943  06E8  00F1               	movwf	___lldiv@divisor+1
   944  06E9  0824               	movf	??_i2c_MasterInit,w
   945  06EA  00F0               	movwf	___lldiv@divisor
   946  06EB  3000               	movlw	0
   947  06EC  00F7               	movwf	___lldiv@dividend+3
   948  06ED  303D               	movlw	61
   949  06EE  00F6               	movwf	___lldiv@dividend+2
   950  06EF  3009               	movlw	9
   951  06F0  00F5               	movwf	___lldiv@dividend+1
   952  06F1  3000               	movlw	0
   953  06F2  00F4               	movwf	___lldiv@dividend
   954  06F3  120A  118A  2792  120A  118A  	fcall	___lldiv
   955  06F8  0870               	movf	?___lldiv,w
   956  06F9  3EFF               	addlw	255
   957  06FA  1683               	bsf	3,5	;RP0=1, select bank1
   958  06FB  1303               	bcf	3,6	;RP1=0, select bank1
   959  06FC  0093               	movwf	19	;volatile
   960  06FD                     l1091:
   961                           
   962                           ;i2c.c: 20: TRISCbits.TRISC3 = 1;
   963  06FD  1587               	bsf	7,3	;volatile
   964  06FE                     l1093:
   965                           
   966                           ;i2c.c: 21: TRISCbits.TRISC4 = 1;
   967  06FE  1607               	bsf	7,4	;volatile
   968  06FF                     l126:
   969  06FF  0008               	return
   970  0700                     __end_of_i2c_MasterInit:
   971                           
   972                           	psect	text3
   973  0792                     __ptext3:	
   974 ;; *************** function ___lldiv *****************
   975 ;; Defined at:
   976 ;;		line 5 in file "C:\Program Files\Microchip\xc8\v2.32\pic\sources\c90\common\__lldiv.c"
   977 ;; Parameters:    Size  Location     Type
   978 ;;  divisor         4    0[COMMON] unsigned long 
   979 ;;  dividend        4    4[COMMON] unsigned long 
   980 ;; Auto vars:     Size  Location     Type
   981 ;;  quotient        4    9[COMMON] unsigned long 
   982 ;;  counter         1   13[COMMON] unsigned char 
   983 ;; Return value:  Size  Location     Type
   984 ;;                  4    0[COMMON] unsigned long 
   985 ;; Registers used:
   986 ;;		wreg, status,2, status,0
   987 ;; Tracked objects:
   988 ;;		On entry : 0/0
   989 ;;		On exit  : 0/0
   990 ;;		Unchanged: 0/0
   991 ;; Data sizes:     COMMON   BANK0   BANK1   BANK3   BANK2
   992 ;;      Params:         8       0       0       0       0
   993 ;;      Locals:         5       0       0       0       0
   994 ;;      Temps:          1       0       0       0       0
   995 ;;      Totals:        14       0       0       0       0
   996 ;;Total ram usage:       14 bytes
   997 ;; Hardware stack levels used: 1
   998 ;; This function calls:
   999 ;;		Nothing
  1000 ;; This function is called by:
  1001 ;;		_i2c_MasterInit
  1002 ;; This function uses a non-reentrant model
  1003 ;;
  1004                           
  1005                           
  1006                           ;psect for function ___lldiv
  1007  0792                     ___lldiv:
  1008  0792                     l1041:	
  1009                           ;incstack = 0
  1010                           ; Regs used in ___lldiv: [wreg+status,2+status,0]
  1011                           
  1012  0792  3000               	movlw	0
  1013  0793  00FC               	movwf	___lldiv@quotient+3
  1014  0794  3000               	movlw	0
  1015  0795  00FB               	movwf	___lldiv@quotient+2
  1016  0796  3000               	movlw	0
  1017  0797  00FA               	movwf	___lldiv@quotient+1
  1018  0798  3000               	movlw	0
  1019  0799  00F9               	movwf	___lldiv@quotient
  1020  079A  0873               	movf	___lldiv@divisor+3,w
  1021  079B  0472               	iorwf	___lldiv@divisor+2,w
  1022  079C  0471               	iorwf	___lldiv@divisor+1,w
  1023  079D  0470               	iorwf	___lldiv@divisor,w
  1024  079E  1903               	skipnz
  1025  079F  2FA1               	goto	u161
  1026  07A0  2FA2               	goto	u160
  1027  07A1                     u161:
  1028  07A1  2FEF               	goto	l1061
  1029  07A2                     u160:
  1030  07A2                     l1043:
  1031  07A2  01FD               	clrf	___lldiv@counter
  1032  07A3  0AFD               	incf	___lldiv@counter,f
  1033  07A4  2FB2               	goto	l1047
  1034  07A5                     l1045:
  1035  07A5  3001               	movlw	1
  1036  07A6  00F8               	movwf	??___lldiv
  1037  07A7                     u175:
  1038  07A7  1003               	clrc
  1039  07A8  0DF0               	rlf	___lldiv@divisor,f
  1040  07A9  0DF1               	rlf	___lldiv@divisor+1,f
  1041  07AA  0DF2               	rlf	___lldiv@divisor+2,f
  1042  07AB  0DF3               	rlf	___lldiv@divisor+3,f
  1043  07AC  0BF8               	decfsz	??___lldiv,f
  1044  07AD  2FA7               	goto	u175
  1045  07AE  3001               	movlw	1
  1046  07AF  00F8               	movwf	??___lldiv
  1047  07B0  0878               	movf	??___lldiv,w
  1048  07B1  07FD               	addwf	___lldiv@counter,f
  1049  07B2                     l1047:
  1050  07B2  1FF3               	btfss	___lldiv@divisor+3,7
  1051  07B3  2FB5               	goto	u181
  1052  07B4  2FB6               	goto	u180
  1053  07B5                     u181:
  1054  07B5  2FA5               	goto	l1045
  1055  07B6                     u180:
  1056  07B6                     l1049:
  1057  07B6  3001               	movlw	1
  1058  07B7  00F8               	movwf	??___lldiv
  1059  07B8                     u195:
  1060  07B8  1003               	clrc
  1061  07B9  0DF9               	rlf	___lldiv@quotient,f
  1062  07BA  0DFA               	rlf	___lldiv@quotient+1,f
  1063  07BB  0DFB               	rlf	___lldiv@quotient+2,f
  1064  07BC  0DFC               	rlf	___lldiv@quotient+3,f
  1065  07BD  0BF8               	decfsz	??___lldiv,f
  1066  07BE  2FB8               	goto	u195
  1067  07BF                     l1051:
  1068  07BF  0873               	movf	___lldiv@divisor+3,w
  1069  07C0  0277               	subwf	___lldiv@dividend+3,w
  1070  07C1  1D03               	skipz
  1071  07C2  2FCD               	goto	u205
  1072  07C3  0872               	movf	___lldiv@divisor+2,w
  1073  07C4  0276               	subwf	___lldiv@dividend+2,w
  1074  07C5  1D03               	skipz
  1075  07C6  2FCD               	goto	u205
  1076  07C7  0871               	movf	___lldiv@divisor+1,w
  1077  07C8  0275               	subwf	___lldiv@dividend+1,w
  1078  07C9  1D03               	skipz
  1079  07CA  2FCD               	goto	u205
  1080  07CB  0870               	movf	___lldiv@divisor,w
  1081  07CC  0274               	subwf	___lldiv@dividend,w
  1082  07CD                     u205:
  1083  07CD  1C03               	skipc
  1084  07CE  2FD0               	goto	u201
  1085  07CF  2FD1               	goto	u200
  1086  07D0                     u201:
  1087  07D0  2FE0               	goto	l1057
  1088  07D1                     u200:
  1089  07D1                     l1053:
  1090  07D1  0870               	movf	___lldiv@divisor,w
  1091  07D2  02F4               	subwf	___lldiv@dividend,f
  1092  07D3  0871               	movf	___lldiv@divisor+1,w
  1093  07D4  1C03               	skipc
  1094  07D5  0F71               	incfsz	___lldiv@divisor+1,w
  1095  07D6  02F5               	subwf	___lldiv@dividend+1,f
  1096  07D7  0872               	movf	___lldiv@divisor+2,w
  1097  07D8  1C03               	skipc
  1098  07D9  0F72               	incfsz	___lldiv@divisor+2,w
  1099  07DA  02F6               	subwf	___lldiv@dividend+2,f
  1100  07DB  0873               	movf	___lldiv@divisor+3,w
  1101  07DC  1C03               	skipc
  1102  07DD  0F73               	incfsz	___lldiv@divisor+3,w
  1103  07DE  02F7               	subwf	___lldiv@dividend+3,f
  1104  07DF                     l1055:
  1105  07DF  1479               	bsf	___lldiv@quotient,0
  1106  07E0                     l1057:
  1107  07E0  3001               	movlw	1
  1108  07E1                     u215:
  1109  07E1  1003               	clrc
  1110  07E2  0CF3               	rrf	___lldiv@divisor+3,f
  1111  07E3  0CF2               	rrf	___lldiv@divisor+2,f
  1112  07E4  0CF1               	rrf	___lldiv@divisor+1,f
  1113  07E5  0CF0               	rrf	___lldiv@divisor,f
  1114  07E6  3EFF               	addlw	-1
  1115  07E7  1D03               	skipz
  1116  07E8  2FE1               	goto	u215
  1117  07E9                     l1059:
  1118  07E9  3001               	movlw	1
  1119  07EA  02FD               	subwf	___lldiv@counter,f
  1120  07EB  1D03               	btfss	3,2
  1121  07EC  2FEE               	goto	u221
  1122  07ED  2FEF               	goto	u220
  1123  07EE                     u221:
  1124  07EE  2FB6               	goto	l1049
  1125  07EF                     u220:
  1126  07EF                     l1061:
  1127  07EF  087C               	movf	___lldiv@quotient+3,w
  1128  07F0  00F3               	movwf	?___lldiv+3
  1129  07F1  087B               	movf	___lldiv@quotient+2,w
  1130  07F2  00F2               	movwf	?___lldiv+2
  1131  07F3  087A               	movf	___lldiv@quotient+1,w
  1132  07F4  00F1               	movwf	?___lldiv+1
  1133  07F5  0879               	movf	___lldiv@quotient,w
  1134  07F6  00F0               	movwf	?___lldiv
  1135  07F7                     l283:
  1136  07F7  0008               	return
  1137  07F8                     __end_of___lldiv:
  1138                           
  1139                           	psect	text4
  1140  05FC                     __ptext4:	
  1141 ;; *************** function _config_lcd *****************
  1142 ;; Defined at:
  1143 ;;		line 143 in file "C:/Users/nicou/OneDrive/Documents/2022/1er_semestre/Digital_2/MiniProy2/MP2-Maestro.X/main.c"
  1144 ;; Parameters:    Size  Location     Type
  1145 ;;		None
  1146 ;; Auto vars:     Size  Location     Type
  1147 ;;		None
  1148 ;; Return value:  Size  Location     Type
  1149 ;;                  1    wreg      void 
  1150 ;; Registers used:
  1151 ;;		wreg, fsr0l, fsr0h, status,2, status,0, pclath, cstack
  1152 ;; Tracked objects:
  1153 ;;		On entry : 0/0
  1154 ;;		On exit  : 0/0
  1155 ;;		Unchanged: 0/0
  1156 ;; Data sizes:     COMMON   BANK0   BANK1   BANK3   BANK2
  1157 ;;      Params:         0       0       0       0       0
  1158 ;;      Locals:         0       0       0       0       0
  1159 ;;      Temps:          1       0       0       0       0
  1160 ;;      Totals:         1       0       0       0       0
  1161 ;;Total ram usage:        1 bytes
  1162 ;; Hardware stack levels used: 1
  1163 ;; Hardware stack levels required when called: 3
  1164 ;; This function calls:
  1165 ;;		_LCD_START
  1166 ;;		_LCD_setCursor
  1167 ;;		_LCD_writeString
  1168 ;; This function is called by:
  1169 ;;		_setup
  1170 ;; This function uses a non-reentrant model
  1171 ;;
  1172                           
  1173                           
  1174                           ;psect for function _config_lcd
  1175  05FC                     _config_lcd:
  1176  05FC                     l1071:	
  1177                           ;incstack = 0
  1178                           ; Regs used in _config_lcd: [wreg-fsr0h+status,2+status,0+pclath+cstack]
  1179                           
  1180                           
  1181                           ;main.c: 144: LCD_START();
  1182  05FC  120A  118A  2743  120A  118A  	fcall	_LCD_START
  1183  0601                     l1073:
  1184                           
  1185                           ;main.c: 146: LCD_setCursor (1,1);
  1186  0601  01F3               	clrf	LCD_setCursor@columna
  1187  0602  0AF3               	incf	LCD_setCursor@columna,f
  1188  0603  3001               	movlw	1
  1189  0604  120A  118A  266B  120A  118A  	fcall	_LCD_setCursor
  1190  0609                     l1075:
  1191                           
  1192                           ;main.c: 147: LCD_writeString ("Gesto");
  1193  0609  300A               	movlw	(low ((STR_1-__stringbase)| (0+32768)))& (0+255)
  1194  060A  120A  118A  2620  120A  118A  	fcall	_LCD_writeString
  1195  060F                     l1077:
  1196                           
  1197                           ;main.c: 149: LCD_setCursor (1,9);
  1198  060F  3009               	movlw	9
  1199  0610  00F6               	movwf	??_config_lcd
  1200  0611  0876               	movf	??_config_lcd,w
  1201  0612  00F3               	movwf	LCD_setCursor@columna
  1202  0613  3001               	movlw	1
  1203  0614  120A  118A  266B  120A  118A  	fcall	_LCD_setCursor
  1204  0619                     l1079:
  1205                           
  1206                           ;main.c: 150: LCD_writeString ("Semaforo");
  1207  0619  3001               	movlw	(low ((STR_2-__stringbase)| (0+32768)))& (0+255)
  1208  061A  120A  118A  2620  120A  118A  	fcall	_LCD_writeString
  1209  061F                     l62:
  1210  061F  0008               	return
  1211  0620                     __end_of_config_lcd:
  1212                           
  1213                           	psect	text5
  1214  0620                     __ptext5:	
  1215 ;; *************** function _LCD_writeString *****************
  1216 ;; Defined at:
  1217 ;;		line 86 in file "lcd_8bitsA.c"
  1218 ;; Parameters:    Size  Location     Type
  1219 ;;  text            1    wreg     PTR unsigned char 
  1220 ;;		 -> STR_2(9), STR_1(6), 
  1221 ;; Auto vars:     Size  Location     Type
  1222 ;;  text            1    5[COMMON] PTR unsigned char 
  1223 ;;		 -> STR_2(9), STR_1(6), 
  1224 ;;  i               2    3[COMMON] int 
  1225 ;; Return value:  Size  Location     Type
  1226 ;;                  1    wreg      void 
  1227 ;; Registers used:
  1228 ;;		wreg, fsr0l, fsr0h, status,2, status,0, pclath, cstack
  1229 ;; Tracked objects:
  1230 ;;		On entry : 0/0
  1231 ;;		On exit  : 0/0
  1232 ;;		Unchanged: 0/0
  1233 ;; Data sizes:     COMMON   BANK0   BANK1   BANK3   BANK2
  1234 ;;      Params:         0       0       0       0       0
  1235 ;;      Locals:         3       0       0       0       0
  1236 ;;      Temps:          0       0       0       0       0
  1237 ;;      Totals:         3       0       0       0       0
  1238 ;;Total ram usage:        3 bytes
  1239 ;; Hardware stack levels used: 1
  1240 ;; Hardware stack levels required when called: 2
  1241 ;; This function calls:
  1242 ;;		_LCD_write
  1243 ;; This function is called by:
  1244 ;;		_config_lcd
  1245 ;; This function uses a non-reentrant model
  1246 ;;
  1247                           
  1248                           
  1249                           ;psect for function _LCD_writeString
  1250  0620                     _LCD_writeString:
  1251                           
  1252                           ;incstack = 0
  1253                           ; Regs used in _LCD_writeString: [wreg-fsr0h+status,2+status,0+pclath+cstack]
  1254                           ;LCD_writeString@text stored from wreg
  1255  0620  00F5               	movwf	LCD_writeString@text
  1256  0621                     l1029:
  1257                           
  1258                           ;lcd_8bitsA.c: 87: int i;;lcd_8bitsA.c: 88: for (i = 0; text[i] != '\0'; i++){
  1259  0621  01F3               	clrf	LCD_writeString@i
  1260  0622  01F4               	clrf	LCD_writeString@i+1
  1261  0623  2E37               	goto	l1035
  1262  0624                     l1031:
  1263                           
  1264                           ;lcd_8bitsA.c: 89: LCD_write(text[i]);
  1265  0624  0873               	movf	LCD_writeString@i,w
  1266  0625  0775               	addwf	LCD_writeString@text,w
  1267  0626  0084               	movwf	4
  1268  0627  120A  118A  2003  120A  118A  	fcall	stringdir
  1269  062C  120A  118A  25B6  120A  118A  	fcall	_LCD_write
  1270  0631                     l1033:
  1271  0631  3001               	movlw	1
  1272  0632  07F3               	addwf	LCD_writeString@i,f
  1273  0633  1803               	skipnc
  1274  0634  0AF4               	incf	LCD_writeString@i+1,f
  1275  0635  3000               	movlw	0
  1276  0636  07F4               	addwf	LCD_writeString@i+1,f
  1277  0637                     l1035:
  1278  0637  0873               	movf	LCD_writeString@i,w
  1279  0638  0775               	addwf	LCD_writeString@text,w
  1280  0639  0084               	movwf	4
  1281  063A  120A  118A  2003  120A  118A  	fcall	stringdir
  1282  063F  3A00               	xorlw	0
  1283  0640  1D03               	skipz
  1284  0641  2E43               	goto	u131
  1285  0642  2E44               	goto	u130
  1286  0643                     u131:
  1287  0643  2E24               	goto	l1031
  1288  0644                     u130:
  1289  0644                     l101:
  1290  0644  0008               	return
  1291  0645                     __end_of_LCD_writeString:
  1292                           
  1293                           	psect	text6
  1294  05B6                     __ptext6:	
  1295 ;; *************** function _LCD_write *****************
  1296 ;; Defined at:
  1297 ;;		line 77 in file "lcd_8bitsA.c"
  1298 ;; Parameters:    Size  Location     Type
  1299 ;;  value           1    wreg     unsigned char 
  1300 ;; Auto vars:     Size  Location     Type
  1301 ;;  value           1    2[COMMON] unsigned char 
  1302 ;; Return value:  Size  Location     Type
  1303 ;;                  1    wreg      void 
  1304 ;; Registers used:
  1305 ;;		wreg, status,2, status,0, pclath, cstack
  1306 ;; Tracked objects:
  1307 ;;		On entry : 0/0
  1308 ;;		On exit  : 0/0
  1309 ;;		Unchanged: 0/0
  1310 ;; Data sizes:     COMMON   BANK0   BANK1   BANK3   BANK2
  1311 ;;      Params:         0       0       0       0       0
  1312 ;;      Locals:         1       0       0       0       0
  1313 ;;      Temps:          0       0       0       0       0
  1314 ;;      Totals:         1       0       0       0       0
  1315 ;;Total ram usage:        1 bytes
  1316 ;; Hardware stack levels used: 1
  1317 ;; Hardware stack levels required when called: 1
  1318 ;; This function calls:
  1319 ;;		_flip_EN
  1320 ;; This function is called by:
  1321 ;;		_LCD_writeString
  1322 ;; This function uses a non-reentrant model
  1323 ;;
  1324                           
  1325                           
  1326                           ;psect for function _LCD_write
  1327  05B6                     _LCD_write:
  1328                           
  1329                           ;incstack = 0
  1330                           ; Regs used in _LCD_write: [wreg+status,2+status,0+pclath+cstack]
  1331                           ;LCD_write@value stored from wreg
  1332  05B6  00F2               	movwf	LCD_write@value
  1333  05B7                     l981:
  1334                           
  1335                           ;lcd_8bitsA.c: 78: RD7 = 1;
  1336  05B7  1283               	bcf	3,5	;RP0=0, select bank0
  1337  05B8  1303               	bcf	3,6	;RP1=0, select bank0
  1338  05B9  1788               	bsf	8,7	;volatile
  1339  05BA                     l983:
  1340                           
  1341                           ;lcd_8bitsA.c: 79: PORTB = value;
  1342  05BA  0872               	movf	LCD_write@value,w
  1343  05BB  0086               	movwf	6	;volatile
  1344  05BC                     l985:
  1345                           
  1346                           ;lcd_8bitsA.c: 80: flip_EN();
  1347  05BC  120A  118A  25A7  120A  118A  	fcall	_flip_EN
  1348  05C1                     l987:
  1349                           
  1350                           ;lcd_8bitsA.c: 81: RD7 = 0;
  1351  05C1  1283               	bcf	3,5	;RP0=0, select bank0
  1352  05C2  1303               	bcf	3,6	;RP1=0, select bank0
  1353  05C3  1388               	bcf	8,7	;volatile
  1354  05C4                     l95:
  1355  05C4  0008               	return
  1356  05C5                     __end_of_LCD_write:
  1357                           
  1358                           	psect	text7
  1359  066B                     __ptext7:	
  1360 ;; *************** function _LCD_setCursor *****************
  1361 ;; Defined at:
  1362 ;;		line 58 in file "lcd_8bitsA.c"
  1363 ;; Parameters:    Size  Location     Type
  1364 ;;  fila            1    wreg     unsigned char 
  1365 ;;  columna         1    3[COMMON] unsigned char 
  1366 ;; Auto vars:     Size  Location     Type
  1367 ;;  fila            1    4[COMMON] unsigned char 
  1368 ;; Return value:  Size  Location     Type
  1369 ;;                  1    wreg      void 
  1370 ;; Registers used:
  1371 ;;		wreg, fsr0l, fsr0h, status,2, status,0, pclath, cstack
  1372 ;; Tracked objects:
  1373 ;;		On entry : 0/0
  1374 ;;		On exit  : 0/0
  1375 ;;		Unchanged: 0/0
  1376 ;; Data sizes:     COMMON   BANK0   BANK1   BANK3   BANK2
  1377 ;;      Params:         1       0       0       0       0
  1378 ;;      Locals:         1       0       0       0       0
  1379 ;;      Temps:          0       0       0       0       0
  1380 ;;      Totals:         2       0       0       0       0
  1381 ;;Total ram usage:        2 bytes
  1382 ;; Hardware stack levels used: 1
  1383 ;; Hardware stack levels required when called: 2
  1384 ;; This function calls:
  1385 ;;		_LCD_CMD
  1386 ;; This function is called by:
  1387 ;;		_config_lcd
  1388 ;; This function uses a non-reentrant model
  1389 ;;
  1390                           
  1391                           
  1392                           ;psect for function _LCD_setCursor
  1393  066B                     _LCD_setCursor:
  1394                           
  1395                           ;incstack = 0
  1396                           ; Regs used in _LCD_setCursor: [wreg-fsr0h+status,2+status,0+pclath+cstack]
  1397                           ;LCD_setCursor@fila stored from wreg
  1398  066B  00F4               	movwf	LCD_setCursor@fila
  1399  066C                     l1017:
  1400                           
  1401                           ;lcd_8bitsA.c: 59: switch (fila){
  1402  066C  2E8B               	goto	l1027
  1403  066D                     l1019:
  1404                           
  1405                           ;lcd_8bitsA.c: 62: LCD_CMD(((columna & 0x0F)-1) | 0x80);
  1406  066D  0873               	movf	LCD_setCursor@columna,w
  1407  066E  390F               	andlw	15
  1408  066F  3EFF               	addlw	255
  1409  0670  3880               	iorlw	128
  1410  0671  120A  118A  257F  120A  118A  	fcall	_LCD_CMD
  1411                           
  1412                           ;lcd_8bitsA.c: 63: break;
  1413  0676  2E93               	goto	l92
  1414  0677                     l1021:
  1415                           
  1416                           ;lcd_8bitsA.c: 67: LCD_CMD(((columna & 0x0F)-1) | 0xC0);
  1417  0677  0873               	movf	LCD_setCursor@columna,w
  1418  0678  390F               	andlw	15
  1419  0679  3EFF               	addlw	255
  1420  067A  38C0               	iorlw	192
  1421  067B  120A  118A  257F  120A  118A  	fcall	_LCD_CMD
  1422                           
  1423                           ;lcd_8bitsA.c: 68: break;
  1424  0680  2E93               	goto	l92
  1425  0681                     l1023:
  1426                           
  1427                           ;lcd_8bitsA.c: 71: LCD_CMD(((columna & 0x0F)-1) | 0x80);
  1428  0681  0873               	movf	LCD_setCursor@columna,w
  1429  0682  390F               	andlw	15
  1430  0683  3EFF               	addlw	255
  1431  0684  3880               	iorlw	128
  1432  0685  120A  118A  257F  120A  118A  	fcall	_LCD_CMD
  1433                           
  1434                           ;lcd_8bitsA.c: 72: break;
  1435  068A  2E93               	goto	l92
  1436  068B                     l1027:
  1437  068B  0874               	movf	LCD_setCursor@fila,w
  1438                           
  1439                           ; Switch size 1, requested type "simple"
  1440                           ; Number of cases is 2, Range of values is 1 to 2
  1441                           ; switch strategies available:
  1442                           ; Name         Instructions Cycles
  1443                           ; simple_byte            7     4 (average)
  1444                           ; direct_byte           17    11 (fixed)
  1445                           ; jumptable            263     9 (fixed)
  1446                           ;	Chosen strategy is simple_byte
  1447  068C  3A01               	xorlw	1	; case 1
  1448  068D  1903               	skipnz
  1449  068E  2E6D               	goto	l1019
  1450  068F  3A03               	xorlw	3	; case 2
  1451  0690  1903               	skipnz
  1452  0691  2E77               	goto	l1021
  1453  0692  2E81               	goto	l1023
  1454  0693                     l92:
  1455  0693  0008               	return
  1456  0694                     __end_of_LCD_setCursor:
  1457                           
  1458                           	psect	text8
  1459  0743                     __ptext8:	
  1460 ;; *************** function _LCD_START *****************
  1461 ;; Defined at:
  1462 ;;		line 19 in file "lcd_8bitsA.c"
  1463 ;; Parameters:    Size  Location     Type
  1464 ;;		None
  1465 ;; Auto vars:     Size  Location     Type
  1466 ;;		None
  1467 ;; Return value:  Size  Location     Type
  1468 ;;                  1    wreg      void 
  1469 ;; Registers used:
  1470 ;;		wreg, status,2, status,0, pclath, cstack
  1471 ;; Tracked objects:
  1472 ;;		On entry : 0/0
  1473 ;;		On exit  : 0/0
  1474 ;;		Unchanged: 0/0
  1475 ;; Data sizes:     COMMON   BANK0   BANK1   BANK3   BANK2
  1476 ;;      Params:         0       0       0       0       0
  1477 ;;      Locals:         0       0       0       0       0
  1478 ;;      Temps:          2       0       0       0       0
  1479 ;;      Totals:         2       0       0       0       0
  1480 ;;Total ram usage:        2 bytes
  1481 ;; Hardware stack levels used: 1
  1482 ;; Hardware stack levels required when called: 2
  1483 ;; This function calls:
  1484 ;;		_LCD_CMD
  1485 ;; This function is called by:
  1486 ;;		_config_lcd
  1487 ;; This function uses a non-reentrant model
  1488 ;;
  1489                           
  1490                           
  1491                           ;psect for function _LCD_START
  1492  0743                     _LCD_START:
  1493  0743                     l991:	
  1494                           ;incstack = 0
  1495                           ; Regs used in _LCD_START: [wreg+status,2+status,0+pclath+cstack]
  1496                           
  1497                           
  1498                           ;lcd_8bitsA.c: 20: RD6 = 0;
  1499  0743  1283               	bcf	3,5	;RP0=0, select bank0
  1500  0744  1303               	bcf	3,6	;RP1=0, select bank0
  1501  0745  1308               	bcf	8,6	;volatile
  1502                           
  1503                           ;lcd_8bitsA.c: 21: RD7 = 0;
  1504  0746  1388               	bcf	8,7	;volatile
  1505  0747                     l993:
  1506                           
  1507                           ;lcd_8bitsA.c: 22: PORTB = 0;
  1508  0747  0186               	clrf	6	;volatile
  1509                           
  1510                           ;lcd_8bitsA.c: 23: TRISB = 0;
  1511  0748  1683               	bsf	3,5	;RP0=1, select bank1
  1512  0749  1303               	bcf	3,6	;RP1=0, select bank1
  1513  074A  0186               	clrf	6	;volatile
  1514  074B                     l995:
  1515                           
  1516                           ;lcd_8bitsA.c: 26: _delay((unsigned long)((20)*(4000000/4000.0)));
  1517  074B  301A               	movlw	26
  1518  074C  00F4               	movwf	??_LCD_START+1
  1519  074D  30F8               	movlw	248
  1520  074E  00F3               	movwf	??_LCD_START
  1521  074F                     u277:
  1522  074F  0BF3               	decfsz	??_LCD_START,f
  1523  0750  2F4F               	goto	u277
  1524  0751  0BF4               	decfsz	??_LCD_START+1,f
  1525  0752  2F4F               	goto	u277
  1526  0753  0000               	nop
  1527  0754                     l997:
  1528                           
  1529                           ;lcd_8bitsA.c: 27: LCD_CMD (0x30);
  1530  0754  3030               	movlw	48
  1531  0755  120A  118A  257F  120A  118A  	fcall	_LCD_CMD
  1532  075A                     l999:
  1533                           
  1534                           ;lcd_8bitsA.c: 29: _delay((unsigned long)((5)*(4000000/4000.0)));
  1535  075A  3007               	movlw	7
  1536  075B  00F4               	movwf	??_LCD_START+1
  1537  075C  307D               	movlw	125
  1538  075D  00F3               	movwf	??_LCD_START
  1539  075E                     u287:
  1540  075E  0BF3               	decfsz	??_LCD_START,f
  1541  075F  2F5E               	goto	u287
  1542  0760  0BF4               	decfsz	??_LCD_START+1,f
  1543  0761  2F5E               	goto	u287
  1544  0762                     l1001:
  1545                           
  1546                           ;lcd_8bitsA.c: 30: LCD_CMD (0x30);
  1547  0762  3030               	movlw	48
  1548  0763  120A  118A  257F  120A  118A  	fcall	_LCD_CMD
  1549  0768                     l1003:
  1550                           
  1551                           ;lcd_8bitsA.c: 32: _delay((unsigned long)((200)*(4000000/4000000.0)));
  1552  0768  3042               	movlw	66
  1553  0769  00F3               	movwf	??_LCD_START
  1554  076A                     u297:
  1555  076A  0BF3               	decfsz	??_LCD_START,f
  1556  076B  2F6A               	goto	u297
  1557  076C  0000               	nop
  1558  076D                     l1005:
  1559                           
  1560                           ;lcd_8bitsA.c: 33: LCD_CMD (0x30);
  1561  076D  3030               	movlw	48
  1562  076E  120A  118A  257F  120A  118A  	fcall	_LCD_CMD
  1563  0773                     l1007:
  1564                           
  1565                           ;lcd_8bitsA.c: 37: LCD_CMD (0x3C);
  1566  0773  303C               	movlw	60
  1567  0774  120A  118A  257F  120A  118A  	fcall	_LCD_CMD
  1568  0779                     l1009:
  1569                           
  1570                           ;lcd_8bitsA.c: 40: LCD_CMD (0x0C);
  1571  0779  300C               	movlw	12
  1572  077A  120A  118A  257F  120A  118A  	fcall	_LCD_CMD
  1573  077F                     l1011:
  1574                           
  1575                           ;lcd_8bitsA.c: 43: LCD_CMD (0x10);
  1576  077F  3010               	movlw	16
  1577  0780  120A  118A  257F  120A  118A  	fcall	_LCD_CMD
  1578  0785                     l1013:
  1579                           
  1580                           ;lcd_8bitsA.c: 46: LCD_CMD (0x01);
  1581  0785  3001               	movlw	1
  1582  0786  120A  118A  257F  120A  118A  	fcall	_LCD_CMD
  1583  078B                     l1015:
  1584                           
  1585                           ;lcd_8bitsA.c: 49: LCD_CMD (0x06);
  1586  078B  3006               	movlw	6
  1587  078C  120A  118A  257F  120A  118A  	fcall	_LCD_CMD
  1588  0791                     l81:
  1589  0791  0008               	return
  1590  0792                     __end_of_LCD_START:
  1591                           
  1592                           	psect	text9
  1593  057F                     __ptext9:	
  1594 ;; *************** function _LCD_CMD *****************
  1595 ;; Defined at:
  1596 ;;		line 12 in file "lcd_8bitsA.c"
  1597 ;; Parameters:    Size  Location     Type
  1598 ;;  cmd             1    wreg     unsigned char 
  1599 ;; Auto vars:     Size  Location     Type
  1600 ;;  cmd             1    2[COMMON] unsigned char 
  1601 ;; Return value:  Size  Location     Type
  1602 ;;                  1    wreg      void 
  1603 ;; Registers used:
  1604 ;;		wreg, status,2, status,0, pclath, cstack
  1605 ;; Tracked objects:
  1606 ;;		On entry : 0/0
  1607 ;;		On exit  : 0/0
  1608 ;;		Unchanged: 0/0
  1609 ;; Data sizes:     COMMON   BANK0   BANK1   BANK3   BANK2
  1610 ;;      Params:         0       0       0       0       0
  1611 ;;      Locals:         1       0       0       0       0
  1612 ;;      Temps:          0       0       0       0       0
  1613 ;;      Totals:         1       0       0       0       0
  1614 ;;Total ram usage:        1 bytes
  1615 ;; Hardware stack levels used: 1
  1616 ;; Hardware stack levels required when called: 1
  1617 ;; This function calls:
  1618 ;;		_flip_EN
  1619 ;; This function is called by:
  1620 ;;		_LCD_START
  1621 ;;		_LCD_setCursor
  1622 ;;		_LCD_CLR
  1623 ;;		_LCD_shiftR
  1624 ;;		_LCD_shiftL
  1625 ;; This function uses a non-reentrant model
  1626 ;;
  1627                           
  1628                           
  1629                           ;psect for function _LCD_CMD
  1630  057F                     _LCD_CMD:
  1631                           
  1632                           ;incstack = 0
  1633                           ; Regs used in _LCD_CMD: [wreg+status,2+status,0+pclath+cstack]
  1634                           ;LCD_CMD@cmd stored from wreg
  1635  057F  00F2               	movwf	LCD_CMD@cmd
  1636  0580                     l973:
  1637                           
  1638                           ;lcd_8bitsA.c: 13: RD7 = 0;
  1639  0580  1283               	bcf	3,5	;RP0=0, select bank0
  1640  0581  1303               	bcf	3,6	;RP1=0, select bank0
  1641  0582  1388               	bcf	8,7	;volatile
  1642  0583                     l975:
  1643                           
  1644                           ;lcd_8bitsA.c: 14: PORTB = cmd;
  1645  0583  0872               	movf	LCD_CMD@cmd,w
  1646  0584  0086               	movwf	6	;volatile
  1647  0585                     l977:
  1648                           
  1649                           ;lcd_8bitsA.c: 15: flip_EN ();
  1650  0585  120A  118A  25A7  120A  118A  	fcall	_flip_EN
  1651  058A                     l78:
  1652  058A  0008               	return
  1653  058B                     __end_of_LCD_CMD:
  1654                           
  1655                           	psect	text10
  1656  05A7                     __ptext10:	
  1657 ;; *************** function _flip_EN *****************
  1658 ;; Defined at:
  1659 ;;		line 5 in file "lcd_8bitsA.c"
  1660 ;; Parameters:    Size  Location     Type
  1661 ;;		None
  1662 ;; Auto vars:     Size  Location     Type
  1663 ;;		None
  1664 ;; Return value:  Size  Location     Type
  1665 ;;                  1    wreg      void 
  1666 ;; Registers used:
  1667 ;;		wreg
  1668 ;; Tracked objects:
  1669 ;;		On entry : 0/0
  1670 ;;		On exit  : 0/0
  1671 ;;		Unchanged: 0/0
  1672 ;; Data sizes:     COMMON   BANK0   BANK1   BANK3   BANK2
  1673 ;;      Params:         0       0       0       0       0
  1674 ;;      Locals:         0       0       0       0       0
  1675 ;;      Temps:          2       0       0       0       0
  1676 ;;      Totals:         2       0       0       0       0
  1677 ;;Total ram usage:        2 bytes
  1678 ;; Hardware stack levels used: 1
  1679 ;; This function calls:
  1680 ;;		Nothing
  1681 ;; This function is called by:
  1682 ;;		_LCD_CMD
  1683 ;;		_LCD_write
  1684 ;; This function uses a non-reentrant model
  1685 ;;
  1686                           
  1687                           
  1688                           ;psect for function _flip_EN
  1689  05A7                     _flip_EN:
  1690  05A7                     l967:	
  1691                           ;incstack = 0
  1692                           ; Regs used in _flip_EN: [wreg]
  1693                           
  1694                           
  1695                           ;lcd_8bitsA.c: 6: RD6 = 1;
  1696  05A7  1283               	bcf	3,5	;RP0=0, select bank0
  1697  05A8  1303               	bcf	3,6	;RP1=0, select bank0
  1698  05A9  1708               	bsf	8,6	;volatile
  1699  05AA                     l969:
  1700                           
  1701                           ;lcd_8bitsA.c: 7: _delay((unsigned long)((5)*(4000000/4000.0)));
  1702  05AA  3007               	movlw	7
  1703  05AB  00F1               	movwf	??_flip_EN+1
  1704  05AC  307D               	movlw	125
  1705  05AD  00F0               	movwf	??_flip_EN
  1706  05AE                     u307:
  1707  05AE  0BF0               	decfsz	??_flip_EN,f
  1708  05AF  2DAE               	goto	u307
  1709  05B0  0BF1               	decfsz	??_flip_EN+1,f
  1710  05B1  2DAE               	goto	u307
  1711  05B2                     l971:
  1712                           
  1713                           ;lcd_8bitsA.c: 8: RD6 = 0;
  1714  05B2  1283               	bcf	3,5	;RP0=0, select bank0
  1715  05B3  1303               	bcf	3,6	;RP1=0, select bank0
  1716  05B4  1308               	bcf	8,6	;volatile
  1717  05B5                     l75:
  1718  05B5  0008               	return
  1719  05B6                     __end_of_flip_EN:
  1720                           
  1721                           	psect	text11
  1722  0598                     __ptext11:	
  1723 ;; *************** function _config_io *****************
  1724 ;; Defined at:
  1725 ;;		line 122 in file "C:/Users/nicou/OneDrive/Documents/2022/1er_semestre/Digital_2/MiniProy2/MP2-Maestro.X/main.c"
  1726 ;; Parameters:    Size  Location     Type
  1727 ;;		None
  1728 ;; Auto vars:     Size  Location     Type
  1729 ;;		None
  1730 ;; Return value:  Size  Location     Type
  1731 ;;                  1    wreg      void 
  1732 ;; Registers used:
  1733 ;;		status,2
  1734 ;; Tracked objects:
  1735 ;;		On entry : 0/0
  1736 ;;		On exit  : 0/0
  1737 ;;		Unchanged: 0/0
  1738 ;; Data sizes:     COMMON   BANK0   BANK1   BANK3   BANK2
  1739 ;;      Params:         0       0       0       0       0
  1740 ;;      Locals:         0       0       0       0       0
  1741 ;;      Temps:          0       0       0       0       0
  1742 ;;      Totals:         0       0       0       0       0
  1743 ;;Total ram usage:        0 bytes
  1744 ;; Hardware stack levels used: 1
  1745 ;; This function calls:
  1746 ;;		Nothing
  1747 ;; This function is called by:
  1748 ;;		_setup
  1749 ;; This function uses a non-reentrant model
  1750 ;;
  1751                           
  1752                           
  1753                           ;psect for function _config_io
  1754  0598                     _config_io:
  1755  0598                     l1065:	
  1756                           ;incstack = 0
  1757                           ; Regs used in _config_io: [status,2]
  1758                           
  1759                           
  1760                           ;main.c: 123: ANSEL = 0;
  1761  0598  1683               	bsf	3,5	;RP0=1, select bank3
  1762  0599  1703               	bsf	3,6	;RP1=1, select bank3
  1763  059A  0188               	clrf	8	;volatile
  1764                           
  1765                           ;main.c: 124: ANSELH = 0;
  1766  059B  0189               	clrf	9	;volatile
  1767                           
  1768                           ;main.c: 126: TRISA = 0;
  1769  059C  1683               	bsf	3,5	;RP0=1, select bank1
  1770  059D  1303               	bcf	3,6	;RP1=0, select bank1
  1771  059E  0185               	clrf	5	;volatile
  1772                           
  1773                           ;main.c: 127: TRISB = 0;
  1774  059F  0186               	clrf	6	;volatile
  1775                           
  1776                           ;main.c: 128: TRISD = 0;
  1777  05A0  0188               	clrf	8	;volatile
  1778                           
  1779                           ;main.c: 130: PORTA = 0;
  1780  05A1  1283               	bcf	3,5	;RP0=0, select bank0
  1781  05A2  1303               	bcf	3,6	;RP1=0, select bank0
  1782  05A3  0185               	clrf	5	;volatile
  1783                           
  1784                           ;main.c: 131: PORTB = 0;
  1785  05A4  0186               	clrf	6	;volatile
  1786                           
  1787                           ;main.c: 132: PORTD = 0;
  1788  05A5  0188               	clrf	8	;volatile
  1789  05A6                     l56:
  1790  05A6  0008               	return
  1791  05A7                     __end_of_config_io:
  1792                           
  1793                           	psect	text12
  1794  054F                     __ptext12:	
  1795 ;; *************** function _config_clock *****************
  1796 ;; Defined at:
  1797 ;;		line 137 in file "C:/Users/nicou/OneDrive/Documents/2022/1er_semestre/Digital_2/MiniProy2/MP2-Maestro.X/main.c"
  1798 ;; Parameters:    Size  Location     Type
  1799 ;;		None
  1800 ;; Auto vars:     Size  Location     Type
  1801 ;;		None
  1802 ;; Return value:  Size  Location     Type
  1803 ;;                  1    wreg      void 
  1804 ;; Registers used:
  1805 ;;		wreg, status,2, status,0
  1806 ;; Tracked objects:
  1807 ;;		On entry : 0/0
  1808 ;;		On exit  : 0/0
  1809 ;;		Unchanged: 0/0
  1810 ;; Data sizes:     COMMON   BANK0   BANK1   BANK3   BANK2
  1811 ;;      Params:         0       0       0       0       0
  1812 ;;      Locals:         0       0       0       0       0
  1813 ;;      Temps:          0       0       0       0       0
  1814 ;;      Totals:         0       0       0       0       0
  1815 ;;Total ram usage:        0 bytes
  1816 ;; Hardware stack levels used: 1
  1817 ;; This function calls:
  1818 ;;		Nothing
  1819 ;; This function is called by:
  1820 ;;		_setup
  1821 ;; This function uses a non-reentrant model
  1822 ;;
  1823                           
  1824                           
  1825                           ;psect for function _config_clock
  1826  054F                     _config_clock:
  1827  054F                     l1067:	
  1828                           ;incstack = 0
  1829                           ; Regs used in _config_clock: [wreg+status,2+status,0]
  1830                           
  1831                           
  1832                           ;main.c: 138: OSCCONbits.IRCF = 0b110;
  1833  054F  1683               	bsf	3,5	;RP0=1, select bank1
  1834  0550  1303               	bcf	3,6	;RP1=0, select bank1
  1835  0551  080F               	movf	15,w	;volatile
  1836  0552  398F               	andlw	-113
  1837  0553  3860               	iorlw	96
  1838  0554  008F               	movwf	15	;volatile
  1839  0555                     l1069:
  1840                           
  1841                           ;main.c: 139: OSCCONbits.SCS = 1;
  1842  0555  140F               	bsf	15,0	;volatile
  1843  0556                     l59:
  1844  0556  0008               	return
  1845  0557                     __end_of_config_clock:
  1846                           
  1847                           	psect	text13
  1848  05C5                     __ptext13:	
  1849 ;; *************** function _i2c_MW *****************
  1850 ;; Defined at:
  1851 ;;		line 76 in file "C:/Users/nicou/OneDrive/Documents/2022/1er_semestre/Digital_2/MiniProy2/MP2-Maestro.X/i2c.c"
  1852 ;; Parameters:    Size  Location     Type
  1853 ;;  address         1    wreg     unsigned char 
  1854 ;;  messege         1    1[COMMON] unsigned char 
  1855 ;; Auto vars:     Size  Location     Type
  1856 ;;  address         1    2[COMMON] unsigned char 
  1857 ;; Return value:  Size  Location     Type
  1858 ;;                  1    wreg      void 
  1859 ;; Registers used:
  1860 ;;		wreg, status,2, status,0, pclath, cstack
  1861 ;; Tracked objects:
  1862 ;;		On entry : 0/0
  1863 ;;		On exit  : 0/0
  1864 ;;		Unchanged: 0/0
  1865 ;; Data sizes:     COMMON   BANK0   BANK1   BANK3   BANK2
  1866 ;;      Params:         1       0       0       0       0
  1867 ;;      Locals:         1       0       0       0       0
  1868 ;;      Temps:          0       0       0       0       0
  1869 ;;      Totals:         2       0       0       0       0
  1870 ;;Total ram usage:        2 bytes
  1871 ;; Hardware stack levels used: 1
  1872 ;; Hardware stack levels required when called: 2
  1873 ;; This function calls:
  1874 ;;		_i2c_MasterSS
  1875 ;;		_i2c_MasterStart
  1876 ;;		_i2c_MasterStop
  1877 ;;		_i2c_MasterWrite
  1878 ;; This function is called by:
  1879 ;;		_main
  1880 ;; This function uses a non-reentrant model
  1881 ;;
  1882                           
  1883                           
  1884                           ;psect for function _i2c_MW
  1885  05C5                     _i2c_MW:
  1886                           
  1887                           ;incstack = 0
  1888                           ; Regs used in _i2c_MW: [wreg+status,2+status,0+pclath+cstack]
  1889                           ;i2c_MW@address stored from wreg
  1890  05C5  00F2               	movwf	i2c_MW@address
  1891  05C6                     l1135:
  1892                           
  1893                           ;i2c.c: 77: i2c_MasterStart();
  1894  05C6  120A  118A  2557  120A  118A  	fcall	_i2c_MasterStart
  1895                           
  1896                           ;i2c.c: 78: i2c_MasterSS(address);
  1897  05CB  0872               	movf	i2c_MW@address,w
  1898  05CC  120A  118A  2569  120A  118A  	fcall	_i2c_MasterSS
  1899                           
  1900                           ;i2c.c: 79: i2c_MasterWrite(messege);
  1901  05D1  0871               	movf	i2c_MW@messege,w
  1902  05D2  120A  118A  2574  120A  118A  	fcall	_i2c_MasterWrite
  1903                           
  1904                           ;i2c.c: 80: i2c_MasterStop();
  1905  05D7  120A  118A  2560  120A  118A  	fcall	_i2c_MasterStop
  1906  05DC                     l155:
  1907  05DC  0008               	return
  1908  05DD                     __end_of_i2c_MW:
  1909                           
  1910                           	psect	text14
  1911  0574                     __ptext14:	
  1912 ;; *************** function _i2c_MasterWrite *****************
  1913 ;; Defined at:
  1914 ;;		line 48 in file "C:/Users/nicou/OneDrive/Documents/2022/1er_semestre/Digital_2/MiniProy2/MP2-Maestro.X/i2c.c"
  1915 ;; Parameters:    Size  Location     Type
  1916 ;;  dato            1    wreg     unsigned char 
  1917 ;; Auto vars:     Size  Location     Type
  1918 ;;  dato            1    0[COMMON] unsigned char 
  1919 ;; Return value:  Size  Location     Type
  1920 ;;                  1    wreg      void 
  1921 ;; Registers used:
  1922 ;;		wreg, status,2, status,0, pclath, cstack
  1923 ;; Tracked objects:
  1924 ;;		On entry : 0/0
  1925 ;;		On exit  : 0/0
  1926 ;;		Unchanged: 0/0
  1927 ;; Data sizes:     COMMON   BANK0   BANK1   BANK3   BANK2
  1928 ;;      Params:         0       0       0       0       0
  1929 ;;      Locals:         1       0       0       0       0
  1930 ;;      Temps:          0       0       0       0       0
  1931 ;;      Totals:         1       0       0       0       0
  1932 ;;Total ram usage:        1 bytes
  1933 ;; Hardware stack levels used: 1
  1934 ;; Hardware stack levels required when called: 1
  1935 ;; This function calls:
  1936 ;;		_i2c_MasterWait
  1937 ;; This function is called by:
  1938 ;;		_i2c_MW
  1939 ;; This function uses a non-reentrant model
  1940 ;;
  1941                           
  1942                           
  1943                           ;psect for function _i2c_MasterWrite
  1944  0574                     _i2c_MasterWrite:
  1945                           
  1946                           ;incstack = 0
  1947                           ; Regs used in _i2c_MasterWrite: [wreg+status,2+status,0+pclath+cstack]
  1948                           ;i2c_MasterWrite@dato stored from wreg
  1949  0574  00F0               	movwf	i2c_MasterWrite@dato
  1950  0575                     l1107:
  1951                           
  1952                           ;i2c.c: 49: i2c_MasterWait();
  1953  0575  120A  118A  258B  120A  118A  	fcall	_i2c_MasterWait
  1954  057A                     l1109:
  1955                           
  1956                           ;i2c.c: 50: SSPBUF = dato;
  1957  057A  0870               	movf	i2c_MasterWrite@dato,w
  1958  057B  1283               	bcf	3,5	;RP0=0, select bank0
  1959  057C  1303               	bcf	3,6	;RP1=0, select bank0
  1960  057D  0093               	movwf	19	;volatile
  1961  057E                     l147:
  1962  057E  0008               	return
  1963  057F                     __end_of_i2c_MasterWrite:
  1964                           
  1965                           	psect	text15
  1966  0645                     __ptext15:	
  1967 ;; *************** function _i2c_MR *****************
  1968 ;; Defined at:
  1969 ;;		line 83 in file "C:/Users/nicou/OneDrive/Documents/2022/1er_semestre/Digital_2/MiniProy2/MP2-Maestro.X/i2c.c"
  1970 ;; Parameters:    Size  Location     Type
  1971 ;;  address         1    wreg     unsigned char 
  1972 ;;  value           1    6[COMMON] PTR unsigned char 
  1973 ;;		 -> data(2), 
  1974 ;; Auto vars:     Size  Location     Type
  1975 ;;  address         1    8[COMMON] unsigned char 
  1976 ;;  temp            1    9[COMMON] unsigned char 
  1977 ;; Return value:  Size  Location     Type
  1978 ;;                  1    wreg      void 
  1979 ;; Registers used:
  1980 ;;		wreg, fsr0l, fsr0h, status,2, status,0, pclath, cstack
  1981 ;; Tracked objects:
  1982 ;;		On entry : 0/0
  1983 ;;		On exit  : 0/0
  1984 ;;		Unchanged: 0/0
  1985 ;; Data sizes:     COMMON   BANK0   BANK1   BANK3   BANK2
  1986 ;;      Params:         1       0       0       0       0
  1987 ;;      Locals:         2       0       0       0       0
  1988 ;;      Temps:          1       0       0       0       0
  1989 ;;      Totals:         4       0       0       0       0
  1990 ;;Total ram usage:        4 bytes
  1991 ;; Hardware stack levels used: 1
  1992 ;; Hardware stack levels required when called: 2
  1993 ;; This function calls:
  1994 ;;		_i2c_MasterRead
  1995 ;;		_i2c_MasterSS
  1996 ;;		_i2c_MasterStart
  1997 ;;		_i2c_MasterStop
  1998 ;; This function is called by:
  1999 ;;		_main
  2000 ;; This function uses a non-reentrant model
  2001 ;;
  2002                           
  2003                           
  2004                           ;psect for function _i2c_MR
  2005  0645                     _i2c_MR:
  2006                           
  2007                           ;incstack = 0
  2008                           ; Regs used in _i2c_MR: [wreg-fsr0h+status,2+status,0+pclath+cstack]
  2009                           ;i2c_MR@address stored from wreg
  2010  0645  00F8               	movwf	i2c_MR@address
  2011  0646                     l1137:
  2012                           
  2013                           ;i2c.c: 84: uint8_t temp;;i2c.c: 85: temp = address;
  2014  0646  0878               	movf	i2c_MR@address,w
  2015  0647  00F7               	movwf	??_i2c_MR
  2016  0648  0877               	movf	??_i2c_MR,w
  2017  0649  00F9               	movwf	i2c_MR@temp
  2018  064A                     l1139:
  2019                           
  2020                           ;i2c.c: 86: temp |= 0b1;
  2021  064A  1479               	bsf	i2c_MR@temp,0
  2022  064B                     l1141:
  2023                           
  2024                           ;i2c.c: 87: i2c_MasterStart();
  2025  064B  120A  118A  2557  120A  118A  	fcall	_i2c_MasterStart
  2026  0650                     l1143:
  2027                           
  2028                           ;i2c.c: 88: i2c_MasterSS(temp);
  2029  0650  0879               	movf	i2c_MR@temp,w
  2030  0651  120A  118A  2569  120A  118A  	fcall	_i2c_MasterSS
  2031  0656                     l1145:
  2032                           
  2033                           ;i2c.c: 89: *value = i2c_MasterRead(0);
  2034  0656  3000               	movlw	0
  2035  0657  00F0               	movwf	i2c_MasterRead@d
  2036  0658  00F1               	movwf	i2c_MasterRead@d+1
  2037  0659  120A  118A  2694  120A  118A  	fcall	_i2c_MasterRead
  2038  065E  0870               	movf	?_i2c_MasterRead,w
  2039  065F  00F7               	movwf	??_i2c_MR
  2040  0660  0876               	movf	i2c_MR@value,w
  2041  0661  0084               	movwf	4
  2042  0662  0877               	movf	??_i2c_MR,w
  2043  0663  1383               	bcf	3,7	;select IRP bank0
  2044  0664  0080               	movwf	0
  2045  0665                     l1147:
  2046                           
  2047                           ;i2c.c: 90: i2c_MasterStop();
  2048  0665  120A  118A  2560  120A  118A  	fcall	_i2c_MasterStop
  2049  066A                     l158:
  2050  066A  0008               	return
  2051  066B                     __end_of_i2c_MR:
  2052                           
  2053                           	psect	text16
  2054  0560                     __ptext16:	
  2055 ;; *************** function _i2c_MasterStop *****************
  2056 ;; Defined at:
  2057 ;;		line 38 in file "C:/Users/nicou/OneDrive/Documents/2022/1er_semestre/Digital_2/MiniProy2/MP2-Maestro.X/i2c.c"
  2058 ;; Parameters:    Size  Location     Type
  2059 ;;		None
  2060 ;; Auto vars:     Size  Location     Type
  2061 ;;		None
  2062 ;; Return value:  Size  Location     Type
  2063 ;;                  1    wreg      void 
  2064 ;; Registers used:
  2065 ;;		wreg, status,2, status,0, pclath, cstack
  2066 ;; Tracked objects:
  2067 ;;		On entry : 0/0
  2068 ;;		On exit  : 0/0
  2069 ;;		Unchanged: 0/0
  2070 ;; Data sizes:     COMMON   BANK0   BANK1   BANK3   BANK2
  2071 ;;      Params:         0       0       0       0       0
  2072 ;;      Locals:         0       0       0       0       0
  2073 ;;      Temps:          0       0       0       0       0
  2074 ;;      Totals:         0       0       0       0       0
  2075 ;;Total ram usage:        0 bytes
  2076 ;; Hardware stack levels used: 1
  2077 ;; Hardware stack levels required when called: 1
  2078 ;; This function calls:
  2079 ;;		_i2c_MasterWait
  2080 ;; This function is called by:
  2081 ;;		_i2c_MW
  2082 ;;		_i2c_MR
  2083 ;; This function uses a non-reentrant model
  2084 ;;
  2085                           
  2086                           
  2087                           ;psect for function _i2c_MasterStop
  2088  0560                     _i2c_MasterStop:
  2089  0560                     l1099:	
  2090                           ;incstack = 0
  2091                           ; Regs used in _i2c_MasterStop: [wreg+status,2+status,0+pclath+cstack]
  2092                           
  2093                           
  2094                           ;i2c.c: 39: i2c_MasterWait();
  2095  0560  120A  118A  258B  120A  118A  	fcall	_i2c_MasterWait
  2096  0565                     l1101:
  2097                           
  2098                           ;i2c.c: 40: SSPCON2bits.PEN = 1;
  2099  0565  1683               	bsf	3,5	;RP0=1, select bank1
  2100  0566  1303               	bcf	3,6	;RP1=0, select bank1
  2101  0567  1511               	bsf	17,2	;volatile
  2102  0568                     l141:
  2103  0568  0008               	return
  2104  0569                     __end_of_i2c_MasterStop:
  2105                           
  2106                           	psect	text17
  2107  0557                     __ptext17:	
  2108 ;; *************** function _i2c_MasterStart *****************
  2109 ;; Defined at:
  2110 ;;		line 28 in file "C:/Users/nicou/OneDrive/Documents/2022/1er_semestre/Digital_2/MiniProy2/MP2-Maestro.X/i2c.c"
  2111 ;; Parameters:    Size  Location     Type
  2112 ;;		None
  2113 ;; Auto vars:     Size  Location     Type
  2114 ;;		None
  2115 ;; Return value:  Size  Location     Type
  2116 ;;                  1    wreg      void 
  2117 ;; Registers used:
  2118 ;;		wreg, status,2, status,0, pclath, cstack
  2119 ;; Tracked objects:
  2120 ;;		On entry : 0/0
  2121 ;;		On exit  : 0/0
  2122 ;;		Unchanged: 0/0
  2123 ;; Data sizes:     COMMON   BANK0   BANK1   BANK3   BANK2
  2124 ;;      Params:         0       0       0       0       0
  2125 ;;      Locals:         0       0       0       0       0
  2126 ;;      Temps:          0       0       0       0       0
  2127 ;;      Totals:         0       0       0       0       0
  2128 ;;Total ram usage:        0 bytes
  2129 ;; Hardware stack levels used: 1
  2130 ;; Hardware stack levels required when called: 1
  2131 ;; This function calls:
  2132 ;;		_i2c_MasterWait
  2133 ;; This function is called by:
  2134 ;;		_i2c_MW
  2135 ;;		_i2c_MR
  2136 ;; This function uses a non-reentrant model
  2137 ;;
  2138                           
  2139                           
  2140                           ;psect for function _i2c_MasterStart
  2141  0557                     _i2c_MasterStart:
  2142  0557                     l1095:	
  2143                           ;incstack = 0
  2144                           ; Regs used in _i2c_MasterStart: [wreg+status,2+status,0+pclath+cstack]
  2145                           
  2146                           
  2147                           ;i2c.c: 29: i2c_MasterWait();
  2148  0557  120A  118A  258B  120A  118A  	fcall	_i2c_MasterWait
  2149  055C                     l1097:
  2150                           
  2151                           ;i2c.c: 30: SSPCON2bits.SEN = 1;
  2152  055C  1683               	bsf	3,5	;RP0=1, select bank1
  2153  055D  1303               	bcf	3,6	;RP1=0, select bank1
  2154  055E  1411               	bsf	17,0	;volatile
  2155  055F                     l135:
  2156  055F  0008               	return
  2157  0560                     __end_of_i2c_MasterStart:
  2158                           
  2159                           	psect	text18
  2160  0569                     __ptext18:	
  2161 ;; *************** function _i2c_MasterSS *****************
  2162 ;; Defined at:
  2163 ;;		line 43 in file "C:/Users/nicou/OneDrive/Documents/2022/1er_semestre/Digital_2/MiniProy2/MP2-Maestro.X/i2c.c"
  2164 ;; Parameters:    Size  Location     Type
  2165 ;;  address         1    wreg     unsigned char 
  2166 ;; Auto vars:     Size  Location     Type
  2167 ;;  address         1    0[COMMON] unsigned char 
  2168 ;; Return value:  Size  Location     Type
  2169 ;;                  1    wreg      void 
  2170 ;; Registers used:
  2171 ;;		wreg, status,2, status,0, pclath, cstack
  2172 ;; Tracked objects:
  2173 ;;		On entry : 0/0
  2174 ;;		On exit  : 0/0
  2175 ;;		Unchanged: 0/0
  2176 ;; Data sizes:     COMMON   BANK0   BANK1   BANK3   BANK2
  2177 ;;      Params:         0       0       0       0       0
  2178 ;;      Locals:         1       0       0       0       0
  2179 ;;      Temps:          0       0       0       0       0
  2180 ;;      Totals:         1       0       0       0       0
  2181 ;;Total ram usage:        1 bytes
  2182 ;; Hardware stack levels used: 1
  2183 ;; Hardware stack levels required when called: 1
  2184 ;; This function calls:
  2185 ;;		_i2c_MasterWait
  2186 ;; This function is called by:
  2187 ;;		_i2c_MW
  2188 ;;		_i2c_MR
  2189 ;; This function uses a non-reentrant model
  2190 ;;
  2191                           
  2192                           
  2193                           ;psect for function _i2c_MasterSS
  2194  0569                     _i2c_MasterSS:
  2195                           
  2196                           ;incstack = 0
  2197                           ; Regs used in _i2c_MasterSS: [wreg+status,2+status,0+pclath+cstack]
  2198                           ;i2c_MasterSS@address stored from wreg
  2199  0569  00F0               	movwf	i2c_MasterSS@address
  2200  056A                     l1103:
  2201                           
  2202                           ;i2c.c: 44: i2c_MasterWait();
  2203  056A  120A  118A  258B  120A  118A  	fcall	_i2c_MasterWait
  2204  056F                     l1105:
  2205                           
  2206                           ;i2c.c: 45: SSPBUF = address;
  2207  056F  0870               	movf	i2c_MasterSS@address,w
  2208  0570  1283               	bcf	3,5	;RP0=0, select bank0
  2209  0571  1303               	bcf	3,6	;RP1=0, select bank0
  2210  0572  0093               	movwf	19	;volatile
  2211  0573                     l144:
  2212  0573  0008               	return
  2213  0574                     __end_of_i2c_MasterSS:
  2214                           
  2215                           	psect	text19
  2216  0694                     __ptext19:	
  2217 ;; *************** function _i2c_MasterRead *****************
  2218 ;; Defined at:
  2219 ;;		line 56 in file "C:/Users/nicou/OneDrive/Documents/2022/1er_semestre/Digital_2/MiniProy2/MP2-Maestro.X/i2c.c"
  2220 ;; Parameters:    Size  Location     Type
  2221 ;;  d               2    0[COMMON] unsigned short 
  2222 ;; Auto vars:     Size  Location     Type
  2223 ;;  temp            2    4[COMMON] unsigned short 
  2224 ;; Return value:  Size  Location     Type
  2225 ;;                  2    0[COMMON] unsigned short 
  2226 ;; Registers used:
  2227 ;;		wreg, status,2, status,0, pclath, cstack
  2228 ;; Tracked objects:
  2229 ;;		On entry : 0/0
  2230 ;;		On exit  : 0/0
  2231 ;;		Unchanged: 0/0
  2232 ;; Data sizes:     COMMON   BANK0   BANK1   BANK3   BANK2
  2233 ;;      Params:         2       0       0       0       0
  2234 ;;      Locals:         2       0       0       0       0
  2235 ;;      Temps:          2       0       0       0       0
  2236 ;;      Totals:         6       0       0       0       0
  2237 ;;Total ram usage:        6 bytes
  2238 ;; Hardware stack levels used: 1
  2239 ;; Hardware stack levels required when called: 1
  2240 ;; This function calls:
  2241 ;;		_i2c_MasterWait
  2242 ;; This function is called by:
  2243 ;;		_i2c_MR
  2244 ;; This function uses a non-reentrant model
  2245 ;;
  2246                           
  2247                           
  2248                           ;psect for function _i2c_MasterRead
  2249  0694                     _i2c_MasterRead:
  2250  0694                     l1111:	
  2251                           ;incstack = 0
  2252                           ; Regs used in _i2c_MasterRead: [wreg+status,2+status,0+pclath+cstack]
  2253                           
  2254                           
  2255                           ;i2c.c: 57: unsigned short temp;;i2c.c: 58: i2c_MasterWait();
  2256  0694  120A  118A  258B  120A  118A  	fcall	_i2c_MasterWait
  2257  0699                     l1113:
  2258                           
  2259                           ;i2c.c: 59: SSPCON2bits.RCEN = 1;
  2260  0699  1683               	bsf	3,5	;RP0=1, select bank1
  2261  069A  1303               	bcf	3,6	;RP1=0, select bank1
  2262  069B  1591               	bsf	17,3	;volatile
  2263                           
  2264                           ;i2c.c: 61: i2c_MasterWait();
  2265  069C  120A  118A  258B  120A  118A  	fcall	_i2c_MasterWait
  2266  06A1                     l1115:
  2267                           
  2268                           ;i2c.c: 62: temp = SSPBUF;
  2269  06A1  1283               	bcf	3,5	;RP0=0, select bank0
  2270  06A2  1303               	bcf	3,6	;RP1=0, select bank0
  2271  06A3  0813               	movf	19,w	;volatile
  2272  06A4  00F2               	movwf	??_i2c_MasterRead
  2273  06A5  01F3               	clrf	??_i2c_MasterRead+1
  2274  06A6  0872               	movf	??_i2c_MasterRead,w
  2275  06A7  00F4               	movwf	i2c_MasterRead@temp
  2276  06A8  0873               	movf	??_i2c_MasterRead+1,w
  2277  06A9  00F5               	movwf	i2c_MasterRead@temp+1
  2278  06AA                     l1117:
  2279                           
  2280                           ;i2c.c: 64: i2c_MasterWait();
  2281  06AA  120A  118A  258B  120A  118A  	fcall	_i2c_MasterWait
  2282  06AF                     l1119:
  2283                           
  2284                           ;i2c.c: 65: if (d){
  2285  06AF  0870               	movf	i2c_MasterRead@d,w
  2286  06B0  0471               	iorwf	i2c_MasterRead@d+1,w
  2287  06B1  1903               	btfsc	3,2
  2288  06B2  2EB4               	goto	u241
  2289  06B3  2EB5               	goto	u240
  2290  06B4                     u241:
  2291  06B4  2EB9               	goto	l150
  2292  06B5                     u240:
  2293  06B5                     l1121:
  2294                           
  2295                           ;i2c.c: 66: SSPCON2bits.ACKDT = 0;
  2296  06B5  1683               	bsf	3,5	;RP0=1, select bank1
  2297  06B6  1303               	bcf	3,6	;RP1=0, select bank1
  2298  06B7  1291               	bcf	17,5	;volatile
  2299                           
  2300                           ;i2c.c: 67: }
  2301  06B8  2EBC               	goto	l151
  2302  06B9                     l150:
  2303                           
  2304                           ;i2c.c: 69: else {;i2c.c: 70: SSPCON2bits.ACKDT = 1;
  2305  06B9  1683               	bsf	3,5	;RP0=1, select bank1
  2306  06BA  1303               	bcf	3,6	;RP1=0, select bank1
  2307  06BB  1691               	bsf	17,5	;volatile
  2308  06BC                     l151:
  2309                           
  2310                           ;i2c.c: 71: };i2c.c: 72: SSPCON2bits.ACKEN = 1;
  2311  06BC  1611               	bsf	17,4	;volatile
  2312  06BD                     l1123:
  2313                           
  2314                           ;i2c.c: 73: return temp;
  2315  06BD  0875               	movf	i2c_MasterRead@temp+1,w
  2316  06BE  00F1               	movwf	?_i2c_MasterRead+1
  2317  06BF  0874               	movf	i2c_MasterRead@temp,w
  2318  06C0  00F0               	movwf	?_i2c_MasterRead
  2319  06C1                     l152:
  2320  06C1  0008               	return
  2321  06C2                     __end_of_i2c_MasterRead:
  2322                           
  2323                           	psect	text20
  2324  058B                     __ptext20:	
  2325 ;; *************** function _i2c_MasterWait *****************
  2326 ;; Defined at:
  2327 ;;		line 24 in file "C:/Users/nicou/OneDrive/Documents/2022/1er_semestre/Digital_2/MiniProy2/MP2-Maestro.X/i2c.c"
  2328 ;; Parameters:    Size  Location     Type
  2329 ;;		None
  2330 ;; Auto vars:     Size  Location     Type
  2331 ;;		None
  2332 ;; Return value:  Size  Location     Type
  2333 ;;                  1    wreg      void 
  2334 ;; Registers used:
  2335 ;;		wreg, status,2
  2336 ;; Tracked objects:
  2337 ;;		On entry : 0/0
  2338 ;;		On exit  : 0/0
  2339 ;;		Unchanged: 0/0
  2340 ;; Data sizes:     COMMON   BANK0   BANK1   BANK3   BANK2
  2341 ;;      Params:         0       0       0       0       0
  2342 ;;      Locals:         0       0       0       0       0
  2343 ;;      Temps:          0       0       0       0       0
  2344 ;;      Totals:         0       0       0       0       0
  2345 ;;Total ram usage:        0 bytes
  2346 ;; Hardware stack levels used: 1
  2347 ;; This function calls:
  2348 ;;		Nothing
  2349 ;; This function is called by:
  2350 ;;		_i2c_MasterStart
  2351 ;;		_i2c_MasterStop
  2352 ;;		_i2c_MasterSS
  2353 ;;		_i2c_MasterWrite
  2354 ;;		_i2c_MasterRead
  2355 ;;		_i2c_Master_RepeatStart
  2356 ;; This function uses a non-reentrant model
  2357 ;;
  2358                           
  2359                           
  2360                           ;psect for function _i2c_MasterWait
  2361  058B                     _i2c_MasterWait:
  2362  058B                     l1037:	
  2363                           ;incstack = 0
  2364                           ; Regs used in _i2c_MasterWait: [wreg+status,2]
  2365                           
  2366  058B                     l129:	
  2367                           ;i2c.c: 25: while ((SSPSTAT & 0x04) || (SSPCON2 & 0x1F));
  2368                           
  2369  058B  1683               	bsf	3,5	;RP0=1, select bank1
  2370  058C  1303               	bcf	3,6	;RP1=0, select bank1
  2371  058D  1914               	btfsc	20,2	;volatile
  2372  058E  2D90               	goto	u141
  2373  058F  2D91               	goto	u140
  2374  0590                     u141:
  2375  0590  2D8B               	goto	l129
  2376  0591                     u140:
  2377  0591                     l1039:
  2378  0591  0811               	movf	17,w	;volatile
  2379  0592  391F               	andlw	31
  2380  0593  1D03               	btfss	3,2
  2381  0594  2D96               	goto	u151
  2382  0595  2D97               	goto	u150
  2383  0596                     u151:
  2384  0596  2D8B               	goto	l129
  2385  0597                     u150:
  2386  0597                     l132:
  2387  0597  0008               	return
  2388  0598                     __end_of_i2c_MasterWait:
  2389  007E                     btemp	set	126	;btemp
  2390  007E                     wtemp0	set	126
  2391                           
  2392                           	psect	config
  2393                           
  2394                           ;Config register CONFIG1 @ 0x2007
  2395                           ;	Oscillator Selection bits
  2396                           ;	FOSC = INTRC_NOCLKOUT, INTOSCIO oscillator: I/O function on RA6/OSC2/CLKOUT pin, I/O f
      +                          unction on RA7/OSC1/CLKIN
  2397                           ;	Watchdog Timer Enable bit
  2398                           ;	WDTE = OFF, WDT disabled and can be enabled by SWDTEN bit of the WDTCON register
  2399                           ;	Power-up Timer Enable bit
  2400                           ;	PWRTE = OFF, PWRT disabled
  2401                           ;	RE3/MCLR pin function select bit
  2402                           ;	MCLRE = OFF, RE3/MCLR pin function is digital input, MCLR internally tied to VDD
  2403                           ;	Code Protection bit
  2404                           ;	CP = OFF, Program memory code protection is disabled
  2405                           ;	Data Code Protection bit
  2406                           ;	CPD = OFF, Data memory code protection is disabled
  2407                           ;	Brown Out Reset Selection bits
  2408                           ;	BOREN = OFF, BOR disabled
  2409                           ;	Internal External Switchover bit
  2410                           ;	IESO = OFF, Internal/External Switchover mode is disabled
  2411                           ;	Fail-Safe Clock Monitor Enabled bit
  2412                           ;	FCMEN = OFF, Fail-Safe Clock Monitor is disabled
  2413                           ;	Low Voltage Programming Enable bit
  2414                           ;	LVP = OFF, RB3 pin has digital I/O, HV on MCLR must be used for programming
  2415                           ;	In-Circuit Debugger Mode bit
  2416                           ;	DEBUG = 0x1, unprogrammed default
  2417  2007                     	org	8199
  2418  2007  20D4               	dw	8404
  2419                           
  2420                           ;Config register CONFIG2 @ 0x2008
  2421                           ;	Brown-out Reset Selection bit
  2422                           ;	BOR4V = BOR40V, Brown-out Reset set to 4.0V
  2423                           ;	Flash Program Memory Self Write Enable bits
  2424                           ;	WRT = OFF, Write protection off
  2425  2008                     	org	8200
  2426  2008  3FFF               	dw	16383

Data Sizes:
    Strings     15
    Constant    0
    Data        0
    BSS         2
    Persistent  0
    Stack       0

Auto Spaces:
    Space          Size  Autos    Used
    COMMON           14     14      14
    BANK0            80     11      13
    BANK1            80      0       0
    BANK3            96      0       0
    BANK2            96      0       0

Pointer List with Targets:

    i2c_MR@value	PTR unsigned char  size(1) Largest target is 2
		 -> data(BANK0[2]), 

    LCD_writeString@text	PTR unsigned char  size(1) Largest target is 9
		 -> STR_2(CODE[9]), STR_1(CODE[6]), 


Critical Paths under _main in COMMON

    _i2c_MasterInit->___lldiv
    _config_lcd->_LCD_writeString
    _LCD_writeString->_LCD_write
    _LCD_write->_flip_EN
    _LCD_setCursor->_LCD_CMD
    _LCD_START->_LCD_CMD
    _LCD_CMD->_flip_EN
    _i2c_MW->_i2c_MasterSS
    _i2c_MW->_i2c_MasterWrite
    _i2c_MR->_i2c_MasterRead

Critical Paths under _main in BANK0

    _setup->_i2c_MasterInit

Critical Paths under _main in BANK1

    None.

Critical Paths under _main in BANK3

    None.

Critical Paths under _main in BANK2

    None.

Call Graph Tables:

 ---------------------------------------------------------------------------------
 (Depth) Function   	        Calls       Base Space   Used Autos Params    Refs
 ---------------------------------------------------------------------------------
 (0) _main                                                 3     3      0    1325
                                              8 BANK0      3     3      0
                             _i2c_MR
                             _i2c_MW
                              _setup
 ---------------------------------------------------------------------------------
 (1) _setup                                                0     0      0     874
                       _config_clock
                          _config_io
                         _config_lcd
                     _i2c_MasterInit
 ---------------------------------------------------------------------------------
 (2) _i2c_MasterInit                                       8     4      4     412
                                              0 BANK0      8     4      4
                            ___lldiv
 ---------------------------------------------------------------------------------
 (3) ___lldiv                                             14     6      8     314
                                              0 COMMON    14     6      8
 ---------------------------------------------------------------------------------
 (2) _config_lcd                                           1     1      0     462
                                              6 COMMON     1     1      0
                          _LCD_START
                      _LCD_setCursor
                    _LCD_writeString
 ---------------------------------------------------------------------------------
 (3) _LCD_writeString                                      3     3      0     178
                                              3 COMMON     3     3      0
                          _LCD_write
 ---------------------------------------------------------------------------------
 (4) _LCD_write                                            1     1      0      22
                                              2 COMMON     1     1      0
                            _flip_EN
 ---------------------------------------------------------------------------------
 (3) _LCD_setCursor                                        2     1      1     262
                                              3 COMMON     2     1      1
                            _LCD_CMD
 ---------------------------------------------------------------------------------
 (3) _LCD_START                                            2     2      0      22
                                              3 COMMON     2     2      0
                            _LCD_CMD
 ---------------------------------------------------------------------------------
 (4) _LCD_CMD                                              1     1      0      22
                                              2 COMMON     1     1      0
                            _flip_EN
 ---------------------------------------------------------------------------------
 (5) _flip_EN                                              2     2      0       0
                                              0 COMMON     2     2      0
 ---------------------------------------------------------------------------------
 (2) _config_io                                            0     0      0       0
 ---------------------------------------------------------------------------------
 (2) _config_clock                                         0     0      0       0
 ---------------------------------------------------------------------------------
 (1) _i2c_MW                                               2     1      1     164
                                              1 COMMON     2     1      1
                       _i2c_MasterSS
                    _i2c_MasterStart
                     _i2c_MasterStop
                    _i2c_MasterWrite
 ---------------------------------------------------------------------------------
 (2) _i2c_MasterWrite                                      1     1      0      22
                                              0 COMMON     1     1      0
                     _i2c_MasterWait
 ---------------------------------------------------------------------------------
 (1) _i2c_MR                                               4     3      1     287
                                              6 COMMON     4     3      1
                     _i2c_MasterRead
                       _i2c_MasterSS
                    _i2c_MasterStart
                     _i2c_MasterStop
 ---------------------------------------------------------------------------------
 (2) _i2c_MasterStop                                       0     0      0       0
                     _i2c_MasterWait
 ---------------------------------------------------------------------------------
 (2) _i2c_MasterStart                                      0     0      0       0
                     _i2c_MasterWait
 ---------------------------------------------------------------------------------
 (2) _i2c_MasterSS                                         1     1      0      22
                                              0 COMMON     1     1      0
                     _i2c_MasterWait
 ---------------------------------------------------------------------------------
 (2) _i2c_MasterRead                                       6     4      2     121
                                              0 COMMON     6     4      2
                     _i2c_MasterWait
 ---------------------------------------------------------------------------------
 (3) _i2c_MasterWait                                       0     0      0       0
 ---------------------------------------------------------------------------------
 Estimated maximum stack depth 5
 ---------------------------------------------------------------------------------

 Call Graph Graphs:

 _main (ROOT)
   _i2c_MR
     _i2c_MasterRead
       _i2c_MasterWait
     _i2c_MasterSS
       _i2c_MasterWait
     _i2c_MasterStart
       _i2c_MasterWait
     _i2c_MasterStop
       _i2c_MasterWait
   _i2c_MW
     _i2c_MasterSS
     _i2c_MasterStart
     _i2c_MasterStop
     _i2c_MasterWrite
       _i2c_MasterWait
   _setup
     _config_clock
     _config_io
     _config_lcd
       _LCD_START
         _LCD_CMD
           _flip_EN
       _LCD_setCursor
         _LCD_CMD
       _LCD_writeString
         _LCD_write
           _flip_EN
     _i2c_MasterInit
       ___lldiv

 Address spaces:
Name               Size   Autos  Total    Cost      Usage
BITCOMMON            E      0       0       0        0.0%
EEDATA             100      0       0       0        0.0%
NULL                 0      0       0       0        0.0%
CODE                 0      0       0       0        0.0%
COMMON               E      E       E       1      100.0%
BITSFR0              0      0       0       1        0.0%
SFR0                 0      0       0       1        0.0%
BITSFR1              0      0       0       2        0.0%
SFR1                 0      0       0       2        0.0%
STACK                0      0       0       2        0.0%
ABS                  0      0      1B       3        0.0%
BITBANK0            50      0       0       4        0.0%
BITSFR3              0      0       0       4        0.0%
SFR3                 0      0       0       4        0.0%
BANK0               50      B       D       5       16.2%
BITSFR2              0      0       0       5        0.0%
SFR2                 0      0       0       5        0.0%
BITBANK1            50      0       0       6        0.0%
BANK1               50      0       0       7        0.0%
BITBANK3            60      0       0       8        0.0%
BANK3               60      0       0       9        0.0%
BITBANK2            60      0       0      10        0.0%
BANK2               60      0       0      11        0.0%
DATA                 0      0      1B      12        0.0%


Microchip Technology PIC Macro Assembler V2.32 build 20210201212658 
Symbol Table                                                                                   Sun Mar 06 17:41:30 2022

                       pc 0002                        l53 05FB                        l62 061F  
                      l56 05A6                        l81 0791                        l59 0556  
                      l75 05B5                        l92 0693                        l78 058A  
                      l95 05C4                        fsr 0004                       l101 0644  
                     l132 0597                       l141 0568                       l150 06B9  
                     l126 06FF                       l151 06BC                       l135 055F  
                     l152 06C1                       l144 0573                       l129 058B  
                     l147 057E                       l155 05DC                       l158 066A  
                     l283 07F7                       l971 05B2                       l973 0580  
                     l981 05B7                       l967 05A7                       l975 0583  
                     l991 0743                       l983 05BA                       l969 05AA  
                     l977 0585                       l993 0747                       l985 05BC  
                     l995 074B                       l987 05C1                       l997 0754  
                     l999 075A                       _RD6 0046                       _RD7 0047  
                     u200 07D1                       u201 07D0                       u130 0644  
                     u131 0643                       u140 0591                       u220 07EF  
                     u141 0590                       u221 07EE                       u205 07CD  
                     u150 0597                       u230 06E0                       u151 0596  
                     u215 07E1                       u240 06B5                       u160 07A2  
                     u241 06B4                       u161 07A1                       u307 05AE  
                     u235 06DB                       u180 07B6                       u181 07B5  
                     u175 07A7                       u257 071F                       u195 07B8  
                     u267 0739                       u277 074F                       u287 075E  
                     u297 076A                       fsr0 0004                       indf 0000  
         __end_of_LCD_CMD 058B                      l1001 0762                      l1011 077F  
                    l1003 0768                      l1101 0565                      l1013 0785  
                    l1005 076D                      l1021 0677                      l1111 0694  
                    l1103 056A                      l1015 078B                      l1007 0773  
                    l1023 0681                      l1031 0624                      l1121 06B5  
                    l1113 0699                      l1105 056F                      l1009 0779  
                    l1017 066C                      l1033 0631                      l1041 0792  
                    l1123 06BD                      l1115 06A1                      l1107 0575  
                    l1019 066D                      l1027 068B                      l1035 0637  
                    l1051 07BF                      l1043 07A2                      l1131 05E7  
                    l1037 058B                      l1117 06AA                      l1141 064B  
                    l1109 057A                      l1029 0621                      l1053 07D1  
                    l1045 07A5                      l1061 07EF                      l1133 05EC  
                    l1039 0591                      l1119 06AF                      l1143 0650  
                    l1135 05C6                      l1071 05FC                      l1055 07DF  
                    l1047 07B2                      l1127 05DD                      l1151 0705  
                    l1145 0656                      l1137 0646                      l1065 0598  
                    l1073 0601                      l1057 07E0                      l1049 07B6  
                    l1081 06C2                      l1129 05E2                      l1153 070B  
                    l1147 0665                      l1139 064A                      l1067 054F  
                    l1075 0609                      l1059 07E9                      l1091 06FD  
                    l1083 06C6                      l1155 0717                      l1069 0555  
                    l1077 060F                      l1093 06FE                      l1085 06C9  
                    l1157 0725                      l1149 0700                      l1095 0557  
                    l1079 0619                      l1087 06CD                      l1159 0731  
                    l1097 055C                      l1089 06D0                      l1099 0560  
                    STR_1 0012                      STR_2 0009        __size_of_LCD_START 004F  
          ??_i2c_MasterSS 0070                      _data 002B                      _main 0700  
                    btemp 007E    __size_of_LCD_setCursor 0029            ??_config_clock 0070  
                    start 0000          ?_LCD_writeString 0070        __size_of_LCD_write 000F  
                   ?_main 0070                     _ANSEL 0188           __end_of___lldiv 07F8  
                   _PORTA 0005                     _PORTB 0006                     _PORTD 0008  
                   _TRISA 0085                     _TRISB 0086                     _TRISD 0088  
         __end_of_flip_EN 05B6                     _setup 05DD                     pclath 000A  
                   status 0003                     wtemp0 007E           __initialization 07F8  
            __end_of_main 0743                    ??_main 0028         __end_of_LCD_START 0792  
           _LCD_setCursor 066B                 ??_LCD_CMD 0072         __end_of_LCD_write 05C5  
                  ?_setup 0070                    _ANSELH 0189                    _SSPADD 0093  
                  _SSPBUF 0013                    _SSPCON 0014                    _i2c_MR 0645  
                  _i2c_MW 05C5        i2c_MasterInit@freq 0020        i2c_MasterRead@temp 0074  
               ??___lldiv 0078          ??_i2c_MasterInit 0024          ??_i2c_MasterRead 0072  
        ??_i2c_MasterWait 0070          ??_i2c_MasterStop 0070            ?_LCD_setCursor 0073  
               ??_flip_EN 0070      __end_of_i2c_MasterSS 0574      __end_of_config_clock 0557  
       LCD_setCursor@fila 0074   __end_of__initialization 07FC  __size_of_i2c_MasterStart 0009  
          __pcstackCOMMON 0070  __size_of_i2c_MasterWrite 000B             __end_of_setup 05FC  
     i2c_MasterSS@address 0070        __size_of_config_io 000F                   ??_setup 007E  
              __pbssBANK0 002B                   ?_i2c_MR 0076                   ?_i2c_MW 0071  
              __pmaintext 0700           ??_LCD_setCursor 0074            LCD_write@value 0072  
                 _LCD_CMD 057F                _config_lcd 05FC                   _SSPCON2 0091  
                 _SSPSTAT 0094                __stringtab 0003           __size_of_i2c_MR 0026  
         __size_of_i2c_MW 0018           i2c_MasterRead@d 0070         __end_of_config_io 05A7  
   __size_of_i2c_MasterSS 000B                   ___lldiv 0792     __size_of_config_clock 0008  
                 __ptext1 05DD                   __ptext2 06C2                   __ptext3 0792  
                 __ptext4 05FC                   __ptext5 0620                   __ptext6 05B6  
                 __ptext7 066B                   __ptext8 0743                   __ptext9 057F  
       ??_i2c_MasterStart 0070                   _flip_EN 05A7         ??_i2c_MasterWrite 0070  
__size_of_LCD_writeString 0025       LCD_writeString@text 0075          LCD_writeString@i 0073  
               _LCD_START 0743      end_of_initialization 07FC                 _LCD_write 05B6  
            _i2c_MasterSS 0569           ___lldiv@divisor 0070              _config_clock 054F  
         ___lldiv@counter 007D                LCD_CMD@cmd 0072               ?_config_lcd 0070  
              ?_LCD_START 0070                 _TRISCbits 0087                ?_LCD_write 0070  
          __end_of_i2c_MR 066B            __end_of_i2c_MW 05DD       i2c_MasterWrite@dato 0070  
     start_initialization 07F8         ??_LCD_writeString 0073                  ??_i2c_MR 0077  
                ??_i2c_MW 0072       __size_of_config_lcd 0024                  ?_LCD_CMD 0070  
               ___latbits 0002             __pcstackBANK0 0020               ??_LCD_START 0073  
 __size_of_i2c_MasterInit 003E   __size_of_i2c_MasterRead 002E   __size_of_i2c_MasterWait 000D  
 __size_of_i2c_MasterStop 0009               ??_LCD_write 0072           _i2c_MasterStart 0557  
         _i2c_MasterWrite 0574                  ?___lldiv 0070                 _config_io 0598  
   __end_of_LCD_setCursor 0694                 __pstrings 0003                  ?_flip_EN 0070  
          __size_of_setup 001F                ?_config_io 0070               __stringbase 0008  
        __size_of_LCD_CMD 000C              ??_config_lcd 0076   __end_of_i2c_MasterStart 0560  
 __end_of_i2c_MasterWrite 057F        __end_of_config_lcd 0620          __size_of___lldiv 0066  
         _LCD_writeString 0620        __end_of__stringtab 0009          __size_of_flip_EN 000F  
          _i2c_MasterInit 06C2            _i2c_MasterRead 0694            _i2c_MasterWait 058B  
          _i2c_MasterStop 0560                  __ptext10 05A7                  __ptext11 0598  
                __ptext20 058B                  __ptext12 054F                  __ptext13 05C5  
                __ptext14 0574                  __ptext15 0645                  __ptext16 0560  
                __ptext17 0557                  __ptext18 0569                  __ptext19 0694  
           __size_of_main 0043      LCD_setCursor@columna 0073               ??_config_io 0070  
  __end_of_i2c_MasterInit 0700    __end_of_i2c_MasterRead 06C2    __end_of_i2c_MasterWait 0598  
  __end_of_i2c_MasterStop 0569             i2c_MR@address 0078          ?_i2c_MasterStart 0070  
        ?_i2c_MasterWrite 0070          ___lldiv@dividend 0074                 stringcode 0003  
              _OSCCONbits 008F             i2c_MW@address 0072   __end_of_LCD_writeString 0645  
           i2c_MW@messege 0071           ?_i2c_MasterInit 0020           ?_i2c_MasterRead 0070  
         ?_i2c_MasterWait 0070           ?_i2c_MasterStop 0070          ___lldiv@quotient 0079  
                stringdir 0003                  stringtab 0003               _SSPCON2bits 0091  
             i2c_MR@value 0076             ?_i2c_MasterSS 0070                i2c_MR@temp 0079  
              _SSPCONbits 0014             ?_config_clock 0070  
